
bpf/native/balancer.bpf:     file format elf64-x86-64


Disassembly of section xdp:

0000000000000000 <balancer_ingress>:
       0:	f3 0f 1e fa          	endbr64
       4:	55                   	push   %rbp
       5:	48 89 e5             	mov    %rsp,%rbp
       8:	41 57                	push   %r15
       a:	41 56                	push   %r14
       c:	41 55                	push   %r13
       e:	41 54                	push   %r12
      10:	53                   	push   %rbx
      11:	48 81 ec 98 00 00 00 	sub    $0x98,%rsp
      18:	4c 8b 37             	mov    (%rdi),%r14
      1b:	4c 8b 67 08          	mov    0x8(%rdi),%r12
      1f:	49 8d 46 0e          	lea    0xe(%r14),%rax
      23:	bb 01 00 00 00       	mov    $0x1,%ebx
      28:	4c 39 e0             	cmp    %r12,%rax
      2b:	0f 87 6a 1c 00 00    	ja     1c9b <balancer_ingress+0x1c9b>
      31:	49 89 fd             	mov    %rdi,%r13
      34:	41 0f b7 4e 0c       	movzwl 0xc(%r14),%ecx
      39:	81 f9 86 dd 00 00    	cmp    $0xdd86,%ecx
      3f:	0f 84 41 01 00 00    	je     186 <balancer_ingress+0x186>
      45:	bb 02 00 00 00       	mov    $0x2,%ebx
      4a:	66 83 f9 08          	cmp    $0x8,%cx
      4e:	0f 85 47 1c 00 00    	jne    1c9b <balancer_ingress+0x1c9b>
      54:	48 c7 45 a8 00 00 00 	movq   $0x0,-0x58(%rbp)
      5b:	00 
      5c:	48 c7 45 a0 00 00 00 	movq   $0x0,-0x60(%rbp)
      63:	00 
      64:	48 c7 45 98 00 00 00 	movq   $0x0,-0x68(%rbp)
      6b:	00 
      6c:	48 c7 45 90 00 00 00 	movq   $0x0,-0x70(%rbp)
      73:	00 
      74:	48 c7 45 88 00 00 00 	movq   $0x0,-0x78(%rbp)
      7b:	00 
      7c:	48 c7 45 80 00 00 00 	movq   $0x0,-0x80(%rbp)
      83:	00 
      84:	c7 85 68 ff ff ff 00 	movl   $0x0,-0x98(%rbp)
      8b:	00 00 00 
      8e:	48 c7 85 60 ff ff ff 	movq   $0x0,-0xa0(%rbp)
      95:	00 00 00 00 
      99:	48 c7 85 58 ff ff ff 	movq   $0x0,-0xa8(%rbp)
      a0:	00 00 00 00 
      a4:	4d 8d 7e 22          	lea    0x22(%r14),%r15
      a8:	4d 39 e7             	cmp    %r12,%r15
      ab:	0f 87 e5 1b 00 00    	ja     1c96 <balancer_ingress+0x1c96>
      b1:	8a 00                	mov    (%rax),%al
      b3:	24 0f                	and    $0xf,%al
      b5:	3c 05                	cmp    $0x5,%al
      b7:	0f 85 d9 1b 00 00    	jne    1c96 <balancer_ingress+0x1c96>
      bd:	41 8a 46 0f          	mov    0xf(%r14),%al
      c1:	88 45 ad             	mov    %al,-0x53(%rbp)
      c4:	41 8a 4e 17          	mov    0x17(%r14),%cl
      c8:	88 4d a4             	mov    %cl,-0x5c(%rbp)
      cb:	41 0f b7 46 14       	movzwl 0x14(%r14),%eax
      d0:	a9 3f ff 00 00       	test   $0xff3f,%eax
      d5:	0f 85 bb 1b 00 00    	jne    1c96 <balancer_ingress+0x1c96>
      db:	41 0f b7 76 10       	movzwl 0x10(%r14),%esi
      e0:	80 f9 01             	cmp    $0x1,%cl
      e3:	0f 85 64 03 00 00    	jne    44d <balancer_ingress+0x44d>
      e9:	49 8d 5e 2a          	lea    0x2a(%r14),%rbx
      ed:	4c 39 e3             	cmp    %r12,%rbx
      f0:	0f 87 a0 1b 00 00    	ja     1c96 <balancer_ingress+0x1c96>
      f6:	41 8a 0f             	mov    (%r15),%cl
      f9:	80 f9 03             	cmp    $0x3,%cl
      fc:	0f 84 46 07 00 00    	je     848 <balancer_ingress+0x848>
     102:	bb 02 00 00 00       	mov    $0x2,%ebx
     107:	80 f9 08             	cmp    $0x8,%cl
     10a:	0f 85 8b 1b 00 00    	jne    1c9b <balancer_ingress+0x1c9b>
     110:	44 0f b7 c6          	movzwl %si,%r8d
     114:	41 c6 46 22 00       	movb   $0x0,0x22(%r14)
     119:	66 41 83 46 24 08    	addw   $0x8,0x24(%r14)
     11f:	41 c6 46 16 40       	movb   $0x40,0x16(%r14)
     124:	41 8b 4e 1a          	mov    0x1a(%r14),%ecx
     128:	41 8b 76 1e          	mov    0x1e(%r14),%esi
     12c:	41 89 4e 1e          	mov    %ecx,0x1e(%r14)
     130:	41 89 76 1a          	mov    %esi,0x1a(%r14)
     134:	41 0f b7 7e 0e       	movzwl 0xe(%r14),%edi
     139:	41 0f b7 5e 12       	movzwl 0x12(%r14),%ebx
     13e:	45 0f b7 4e 16       	movzwl 0x16(%r14),%r9d
     143:	0f b7 d6             	movzwl %si,%edx
     146:	48 c1 ee 10          	shr    $0x10,%rsi
     14a:	48 01 d6             	add    %rdx,%rsi
     14d:	0f b7 d1             	movzwl %cx,%edx
     150:	48 01 f2             	add    %rsi,%rdx
     153:	48 c1 e9 10          	shr    $0x10,%rcx
     157:	48 01 d1             	add    %rdx,%rcx
     15a:	48 01 f9             	add    %rdi,%rcx
     15d:	4c 01 c1             	add    %r8,%rcx
     160:	48 01 d9             	add    %rbx,%rcx
     163:	48 01 c1             	add    %rax,%rcx
     166:	4c 01 c9             	add    %r9,%rcx
     169:	48 89 c8             	mov    %rcx,%rax
     16c:	48 c1 e8 10          	shr    $0x10,%rax
     170:	0f b7 d1             	movzwl %cx,%edx
     173:	48 01 c2             	add    %rax,%rdx
     176:	48 81 f9 00 00 01 00 	cmp    $0x10000,%rcx
     17d:	48 0f 42 d1          	cmovb  %rcx,%rdx
     181:	e9 01 02 00 00       	jmp    387 <balancer_ingress+0x387>
     186:	48 c7 45 a8 00 00 00 	movq   $0x0,-0x58(%rbp)
     18d:	00 
     18e:	48 c7 45 a0 00 00 00 	movq   $0x0,-0x60(%rbp)
     195:	00 
     196:	48 c7 45 98 00 00 00 	movq   $0x0,-0x68(%rbp)
     19d:	00 
     19e:	48 c7 45 90 00 00 00 	movq   $0x0,-0x70(%rbp)
     1a5:	00 
     1a6:	48 c7 45 88 00 00 00 	movq   $0x0,-0x78(%rbp)
     1ad:	00 
     1ae:	48 c7 45 80 00 00 00 	movq   $0x0,-0x80(%rbp)
     1b5:	00 
     1b6:	c7 85 68 ff ff ff 00 	movl   $0x0,-0x98(%rbp)
     1bd:	00 00 00 
     1c0:	48 c7 85 60 ff ff ff 	movq   $0x0,-0xa0(%rbp)
     1c7:	00 00 00 00 
     1cb:	48 c7 85 58 ff ff ff 	movq   $0x0,-0xa8(%rbp)
     1d2:	00 00 00 00 
     1d6:	4d 8d 7e 36          	lea    0x36(%r14),%r15
     1da:	4d 39 e7             	cmp    %r12,%r15
     1dd:	0f 87 b3 1a 00 00    	ja     1c96 <balancer_ingress+0x1c96>
     1e3:	41 8a 46 14          	mov    0x14(%r14),%al
     1e7:	88 45 a4             	mov    %al,-0x5c(%rbp)
     1ea:	41 8a 4e 0e          	mov    0xe(%r14),%cl
     1ee:	c0 e1 04             	shl    $0x4,%cl
     1f1:	88 4d ad             	mov    %cl,-0x53(%rbp)
     1f4:	41 8a 56 0f          	mov    0xf(%r14),%dl
     1f8:	c0 ea 04             	shr    $0x4,%dl
     1fb:	08 ca                	or     %cl,%dl
     1fd:	88 55 ad             	mov    %dl,-0x53(%rbp)
     200:	3c 2c                	cmp    $0x2c,%al
     202:	0f 84 8e 1a 00 00    	je     1c96 <balancer_ingress+0x1c96>
     208:	41 0f b7 7e 12       	movzwl 0x12(%r14),%edi
     20d:	3c 3a                	cmp    $0x3a,%al
     20f:	0f 85 9d 00 00 00    	jne    2b2 <balancer_ingress+0x2b2>
     215:	49 8d 46 3e          	lea    0x3e(%r14),%rax
     219:	4c 39 e0             	cmp    %r12,%rax
     21c:	0f 87 74 1a 00 00    	ja     1c96 <balancer_ingress+0x1c96>
     222:	41 8a 07             	mov    (%r15),%al
     225:	3c 02                	cmp    $0x2,%al
     227:	0f 84 f6 02 00 00    	je     523 <balancer_ingress+0x523>
     22d:	3c 01                	cmp    $0x1,%al
     22f:	0f 84 30 03 00 00    	je     565 <balancer_ingress+0x565>
     235:	bb 02 00 00 00       	mov    $0x2,%ebx
     23a:	3c 80                	cmp    $0x80,%al
     23c:	0f 85 59 1a 00 00    	jne    1c9b <balancer_ingress+0x1c9b>
     242:	41 c6 46 36 81       	movb   $0x81,0x36(%r14)
     247:	66 41 83 46 38 ff    	addw   $0xffff,0x38(%r14)
     24d:	41 c6 46 15 40       	movb   $0x40,0x15(%r14)
     252:	49 8b 46 16          	mov    0x16(%r14),%rax
     256:	49 8b 4e 1e          	mov    0x1e(%r14),%rcx
     25a:	48 89 4d c8          	mov    %rcx,-0x38(%rbp)
     25e:	48 89 45 c0          	mov    %rax,-0x40(%rbp)
     262:	49 8b 46 26          	mov    0x26(%r14),%rax
     266:	49 8b 4e 2e          	mov    0x2e(%r14),%rcx
     26a:	49 89 46 16          	mov    %rax,0x16(%r14)
     26e:	49 89 4e 1e          	mov    %rcx,0x1e(%r14)
     272:	48 8b 45 c0          	mov    -0x40(%rbp),%rax
     276:	48 8b 4d c8          	mov    -0x38(%rbp),%rcx
     27a:	49 89 46 26          	mov    %rax,0x26(%r14)
     27e:	49 89 4e 2e          	mov    %rcx,0x2e(%r14)
     282:	41 0f b7 46 0a       	movzwl 0xa(%r14),%eax
     287:	66 89 45 bc          	mov    %ax,-0x44(%rbp)
     28b:	41 8b 46 06          	mov    0x6(%r14),%eax
     28f:	89 45 b8             	mov    %eax,-0x48(%rbp)
     292:	41 8b 06             	mov    (%r14),%eax
     295:	41 89 46 06          	mov    %eax,0x6(%r14)
     299:	41 0f b7 46 04       	movzwl 0x4(%r14),%eax
     29e:	66 41 89 46 0a       	mov    %ax,0xa(%r14)
     2a3:	8b 45 b8             	mov    -0x48(%rbp),%eax
     2a6:	41 89 06             	mov    %eax,(%r14)
     2a9:	0f b7 45 bc          	movzwl -0x44(%rbp),%eax
     2ad:	e9 4d 01 00 00       	jmp    3ff <balancer_ingress+0x3ff>
     2b2:	49 8b 4e 16          	mov    0x16(%r14),%rcx
     2b6:	49 8b 56 1e          	mov    0x1e(%r14),%rdx
     2ba:	48 89 55 88          	mov    %rdx,-0x78(%rbp)
     2be:	48 89 4d 80          	mov    %rcx,-0x80(%rbp)
     2c2:	49 8b 4e 26          	mov    0x26(%r14),%rcx
     2c6:	49 8b 56 2e          	mov    0x2e(%r14),%rdx
     2ca:	48 89 4d 90          	mov    %rcx,-0x70(%rbp)
     2ce:	48 89 55 98          	mov    %rdx,-0x68(%rbp)
     2d2:	3c 01                	cmp    $0x1,%al
     2d4:	0f 85 34 01 00 00    	jne    40e <balancer_ingress+0x40e>
     2da:	49 8d 5e 3e          	lea    0x3e(%r14),%rbx
     2de:	4c 39 e3             	cmp    %r12,%rbx
     2e1:	0f 87 af 19 00 00    	ja     1c96 <balancer_ingress+0x1c96>
     2e7:	41 8a 07             	mov    (%r15),%al
     2ea:	3c 03                	cmp    $0x3,%al
     2ec:	0f 84 5f 04 00 00    	je     751 <balancer_ingress+0x751>
     2f2:	bb 02 00 00 00       	mov    $0x2,%ebx
     2f7:	3c 08                	cmp    $0x8,%al
     2f9:	0f 85 9c 19 00 00    	jne    1c9b <balancer_ingress+0x1c9b>
     2ff:	49 8d 46 2a          	lea    0x2a(%r14),%rax
     303:	bb 01 00 00 00       	mov    $0x1,%ebx
     308:	4c 39 e0             	cmp    %r12,%rax
     30b:	0f 87 8a 19 00 00    	ja     1c9b <balancer_ingress+0x1c9b>
     311:	41 c6 46 22 00       	movb   $0x0,0x22(%r14)
     316:	66 41 83 46 24 08    	addw   $0x8,0x24(%r14)
     31c:	41 c6 46 16 40       	movb   $0x40,0x16(%r14)
     321:	41 8b 46 1a          	mov    0x1a(%r14),%eax
     325:	41 8b 4e 1e          	mov    0x1e(%r14),%ecx
     329:	41 89 46 1e          	mov    %eax,0x1e(%r14)
     32d:	41 89 4e 1a          	mov    %ecx,0x1a(%r14)
     331:	45 0f b7 4e 0e       	movzwl 0xe(%r14),%r9d
     336:	41 0f b7 76 10       	movzwl 0x10(%r14),%esi
     33b:	41 0f b7 7e 12       	movzwl 0x12(%r14),%edi
     340:	41 0f b7 5e 14       	movzwl 0x14(%r14),%ebx
     345:	45 0f b7 46 16       	movzwl 0x16(%r14),%r8d
     34a:	0f b7 d1             	movzwl %cx,%edx
     34d:	48 c1 e9 10          	shr    $0x10,%rcx
     351:	48 01 d1             	add    %rdx,%rcx
     354:	0f b7 d0             	movzwl %ax,%edx
     357:	48 01 ca             	add    %rcx,%rdx
     35a:	48 c1 e8 10          	shr    $0x10,%rax
     35e:	48 01 d0             	add    %rdx,%rax
     361:	4c 01 c8             	add    %r9,%rax
     364:	48 01 f0             	add    %rsi,%rax
     367:	48 01 f8             	add    %rdi,%rax
     36a:	48 01 d8             	add    %rbx,%rax
     36d:	4c 01 c0             	add    %r8,%rax
     370:	48 89 c1             	mov    %rax,%rcx
     373:	48 c1 e9 10          	shr    $0x10,%rcx
     377:	0f b7 d0             	movzwl %ax,%edx
     37a:	48 01 ca             	add    %rcx,%rdx
     37d:	48 3d 00 00 01 00    	cmp    $0x10000,%rax
     383:	48 0f 42 d0          	cmovb  %rax,%rdx
     387:	48 89 d0             	mov    %rdx,%rax
     38a:	48 c1 e8 10          	shr    $0x10,%rax
     38e:	0f b7 ca             	movzwl %dx,%ecx
     391:	48 01 c1             	add    %rax,%rcx
     394:	48 81 fa 00 00 01 00 	cmp    $0x10000,%rdx
     39b:	48 0f 42 ca          	cmovb  %rdx,%rcx
     39f:	48 89 c8             	mov    %rcx,%rax
     3a2:	48 c1 e8 10          	shr    $0x10,%rax
     3a6:	0f b7 d1             	movzwl %cx,%edx
     3a9:	48 01 c2             	add    %rax,%rdx
     3ac:	48 81 f9 00 00 01 00 	cmp    $0x10000,%rcx
     3b3:	48 0f 42 d1          	cmovb  %rcx,%rdx
     3b7:	89 d0                	mov    %edx,%eax
     3b9:	c1 e8 10             	shr    $0x10,%eax
     3bc:	48 81 fa 00 00 01 00 	cmp    $0x10000,%rdx
     3c3:	b9 00 00 01 00       	mov    $0x10000,%ecx
     3c8:	0f 43 c8             	cmovae %eax,%ecx
     3cb:	01 d1                	add    %edx,%ecx
     3cd:	f7 d1                	not    %ecx
     3cf:	66 41 89 4e 18       	mov    %cx,0x18(%r14)
     3d4:	41 0f b7 46 0a       	movzwl 0xa(%r14),%eax
     3d9:	66 89 45 c4          	mov    %ax,-0x3c(%rbp)
     3dd:	41 8b 46 06          	mov    0x6(%r14),%eax
     3e1:	89 45 c0             	mov    %eax,-0x40(%rbp)
     3e4:	41 8b 06             	mov    (%r14),%eax
     3e7:	41 89 46 06          	mov    %eax,0x6(%r14)
     3eb:	41 0f b7 46 04       	movzwl 0x4(%r14),%eax
     3f0:	66 41 89 46 0a       	mov    %ax,0xa(%r14)
     3f5:	8b 45 c0             	mov    -0x40(%rbp),%eax
     3f8:	41 89 06             	mov    %eax,(%r14)
     3fb:	0f b7 45 c4          	movzwl -0x3c(%rbp),%eax
     3ff:	66 41 89 46 04       	mov    %ax,0x4(%r14)
     404:	bb 03 00 00 00       	mov    $0x3,%ebx
     409:	e9 8d 18 00 00       	jmp    1c9b <balancer_ingress+0x1c9b>
     40e:	31 c9                	xor    %ecx,%ecx
     410:	bb 02 00 00 00       	mov    $0x2,%ebx
     415:	3c 11                	cmp    $0x11,%al
     417:	0f 84 87 00 00 00    	je     4a4 <balancer_ingress+0x4a4>
     41d:	3c 06                	cmp    $0x6,%al
     41f:	0f 85 76 18 00 00    	jne    1c9b <balancer_ingress+0x1c9b>
     425:	49 8d 46 66          	lea    0x66(%r14),%rax
     429:	f6 c1 01             	test   $0x1,%cl
     42c:	49 0f 44 c7          	cmove  %r15,%rax
     430:	48 8d 50 14          	lea    0x14(%rax),%rdx
     434:	4c 39 e2             	cmp    %r12,%rdx
     437:	0f 87 59 18 00 00    	ja     1c96 <balancer_ingress+0x1c96>
     43d:	f6 40 0d 02          	testb  $0x2,0xd(%rax)
     441:	74 79                	je     4bc <balancer_ingress+0x4bc>
     443:	89 ca                	mov    %ecx,%edx
     445:	80 ca 02             	or     $0x2,%dl
     448:	88 55 ac             	mov    %dl,-0x54(%rbp)
     44b:	eb 6f                	jmp    4bc <balancer_ingress+0x4bc>
     44d:	41 8b 46 1a          	mov    0x1a(%r14),%eax
     451:	89 45 80             	mov    %eax,-0x80(%rbp)
     454:	41 8b 46 1e          	mov    0x1e(%r14),%eax
     458:	89 45 90             	mov    %eax,-0x70(%rbp)
     45b:	80 f9 3a             	cmp    $0x3a,%cl
     45e:	75 7c                	jne    4dc <balancer_ingress+0x4dc>
     460:	49 8d 46 2a          	lea    0x2a(%r14),%rax
     464:	4c 39 e0             	cmp    %r12,%rax
     467:	0f 87 29 18 00 00    	ja     1c96 <balancer_ingress+0x1c96>
     46d:	41 8a 07             	mov    (%r15),%al
     470:	3c 02                	cmp    $0x2,%al
     472:	0f 84 47 06 00 00    	je     abf <balancer_ingress+0xabf>
     478:	3c 01                	cmp    $0x1,%al
     47a:	0f 84 81 06 00 00    	je     b01 <balancer_ingress+0xb01>
     480:	bb 02 00 00 00       	mov    $0x2,%ebx
     485:	3c 80                	cmp    $0x80,%al
     487:	0f 85 0e 18 00 00    	jne    1c9b <balancer_ingress+0x1c9b>
     48d:	49 8d 46 3e          	lea    0x3e(%r14),%rax
     491:	bb 01 00 00 00       	mov    $0x1,%ebx
     496:	4c 39 e0             	cmp    %r12,%rax
     499:	0f 86 a3 fd ff ff    	jbe    242 <balancer_ingress+0x242>
     49f:	e9 f7 17 00 00       	jmp    1c9b <balancer_ingress+0x1c9b>
     4a4:	49 8d 46 66          	lea    0x66(%r14),%rax
     4a8:	f6 c1 01             	test   $0x1,%cl
     4ab:	49 0f 44 c7          	cmove  %r15,%rax
     4af:	48 8d 50 08          	lea    0x8(%rax),%rdx
     4b3:	4c 39 e2             	cmp    %r12,%rdx
     4b6:	0f 87 da 17 00 00    	ja     1c96 <balancer_ingress+0x1c96>
     4bc:	f6 c1 01             	test   $0x1,%cl
     4bf:	89 7d b4             	mov    %edi,-0x4c(%rbp)
     4c2:	0f 85 df 00 00 00    	jne    5a7 <balancer_ingress+0x5a7>
     4c8:	0f b7 10             	movzwl (%rax),%edx
     4cb:	48 8d 4d a0          	lea    -0x60(%rbp),%rcx
     4cf:	66 89 55 a0          	mov    %dx,-0x60(%rbp)
     4d3:	48 83 c0 02          	add    $0x2,%rax
     4d7:	e9 d7 00 00 00       	jmp    5b3 <balancer_ingress+0x5b3>
     4dc:	31 c0                	xor    %eax,%eax
     4de:	bb 02 00 00 00       	mov    $0x2,%ebx
     4e3:	80 f9 11             	cmp    $0x11,%cl
     4e6:	0f 84 25 03 00 00    	je     811 <balancer_ingress+0x811>
     4ec:	80 f9 06             	cmp    $0x6,%cl
     4ef:	0f 85 a6 17 00 00    	jne    1c9b <balancer_ingress+0x1c9b>
     4f5:	49 8d 4e 3e          	lea    0x3e(%r14),%rcx
     4f9:	a8 01                	test   $0x1,%al
     4fb:	49 0f 44 cf          	cmove  %r15,%rcx
     4ff:	48 8d 51 14          	lea    0x14(%rcx),%rdx
     503:	4c 39 e2             	cmp    %r12,%rdx
     506:	0f 87 8a 17 00 00    	ja     1c96 <balancer_ingress+0x1c96>
     50c:	f6 41 0d 02          	testb  $0x2,0xd(%rcx)
     510:	0f 84 12 03 00 00    	je     828 <balancer_ingress+0x828>
     516:	89 c2                	mov    %eax,%edx
     518:	80 ca 02             	or     $0x2,%dl
     51b:	88 55 ac             	mov    %dl,-0x54(%rbp)
     51e:	e9 05 03 00 00       	jmp    828 <balancer_ingress+0x828>
     523:	89 fb                	mov    %edi,%ebx
     525:	c7 45 c0 0c 02 00 00 	movl   $0x20c,-0x40(%rbp)
     52c:	48 bf 00 00 fb d3 81 	movabs $0xffff8881d3fb0000,%rdi
     533:	88 ff ff 
     536:	48 8d 75 c0          	lea    -0x40(%rbp),%rsi
     53a:	48 c7 c0 30 c9 09 9f 	mov    $0xffffffff9f09c930,%rax
     541:	ff d0                	call   *%rax
     543:	48 85 c0             	test   %rax,%rax
     546:	0f 84 4a 17 00 00    	je     1c96 <balancer_ingress+0x1c96>
     54c:	48 83 00 01          	addq   $0x1,(%rax)
     550:	41 8b 4e 3a          	mov    0x3a(%r14),%ecx
     554:	0f c9                	bswap  %ecx
     556:	81 f9 ff 04 00 00    	cmp    $0x4ff,%ecx
     55c:	77 05                	ja     563 <balancer_ingress+0x563>
     55e:	48 83 40 08 01       	addq   $0x1,0x8(%rax)
     563:	89 df                	mov    %ebx,%edi
     565:	49 8d 46 66          	lea    0x66(%r14),%rax
     569:	4c 39 e0             	cmp    %r12,%rax
     56c:	0f 87 24 17 00 00    	ja     1c96 <balancer_ingress+0x1c96>
     572:	41 8a 46 44          	mov    0x44(%r14),%al
     576:	88 45 a4             	mov    %al,-0x5c(%rbp)
     579:	8a 4d ac             	mov    -0x54(%rbp),%cl
     57c:	80 c9 01             	or     $0x1,%cl
     57f:	88 4d ac             	mov    %cl,-0x54(%rbp)
     582:	49 8b 56 56          	mov    0x56(%r14),%rdx
     586:	49 8b 76 5e          	mov    0x5e(%r14),%rsi
     58a:	48 89 55 80          	mov    %rdx,-0x80(%rbp)
     58e:	48 89 75 88          	mov    %rsi,-0x78(%rbp)
     592:	49 8b 56 46          	mov    0x46(%r14),%rdx
     596:	49 8b 76 4e          	mov    0x4e(%r14),%rsi
     59a:	48 89 55 90          	mov    %rdx,-0x70(%rbp)
     59e:	48 89 75 98          	mov    %rsi,-0x68(%rbp)
     5a2:	e9 69 fe ff ff       	jmp    410 <balancer_ingress+0x410>
     5a7:	0f b7 50 02          	movzwl 0x2(%rax),%edx
     5ab:	48 8d 4d a0          	lea    -0x60(%rbp),%rcx
     5af:	66 89 55 a0          	mov    %dx,-0x60(%rbp)
     5b3:	0f b7 00             	movzwl (%rax),%eax
     5b6:	66 89 41 02          	mov    %ax,0x2(%rcx)
     5ba:	48 8b 45 90          	mov    -0x70(%rbp),%rax
     5be:	48 8b 4d 98          	mov    -0x68(%rbp),%rcx
     5c2:	48 89 8d 60 ff ff ff 	mov    %rcx,-0xa0(%rbp)
     5c9:	48 89 85 58 ff ff ff 	mov    %rax,-0xa8(%rbp)
     5d0:	0f b7 45 a2          	movzwl -0x5e(%rbp),%eax
     5d4:	66 89 85 68 ff ff ff 	mov    %ax,-0x98(%rbp)
     5db:	8a 45 a4             	mov    -0x5c(%rbp),%al
     5de:	88 85 6a ff ff ff    	mov    %al,-0x96(%rbp)
     5e4:	48 bf 00 d8 60 1d 81 	movabs $0xffff88811d60d800,%rdi
     5eb:	88 ff ff 
     5ee:	48 8d b5 58 ff ff ff 	lea    -0xa8(%rbp),%rsi
     5f5:	48 c7 c0 30 c9 09 9f 	mov    $0xffffffff9f09c930,%rax
     5fc:	ff d0                	call   *%rax
     5fe:	48 85 c0             	test   %rax,%rax
     601:	0f 84 ca 01 00 00    	je     7d1 <balancer_ingress+0x7d1>
     607:	4c 89 e1             	mov    %r12,%rcx
     60a:	4c 29 f1             	sub    %r14,%rcx
     60d:	bb 01 00 00 00       	mov    $0x1,%ebx
     612:	48 81 f9 ea 05 00 00 	cmp    $0x5ea,%rcx
     619:	0f 8f 7c 16 00 00    	jg     1c9b <balancer_ingress+0x1c9b>
     61f:	48 89 45 d0          	mov    %rax,-0x30(%rbp)
     623:	c7 85 4c ff ff ff 00 	movl   $0x200,-0xb4(%rbp)
     62a:	02 00 00 
     62d:	48 bf 00 00 fb d3 81 	movabs $0xffff8881d3fb0000,%rdi
     634:	88 ff ff 
     637:	48 8d b5 4c ff ff ff 	lea    -0xb4(%rbp),%rsi
     63e:	48 c7 c0 30 c9 09 9f 	mov    $0xffffffff9f09c930,%rax
     645:	ff d0                	call   *%rax
     647:	48 85 c0             	test   %rax,%rax
     64a:	0f 84 46 16 00 00    	je     1c96 <balancer_ingress+0x1c96>
     650:	48 89 85 40 ff ff ff 	mov    %rax,-0xc0(%rbp)
     657:	48 83 00 01          	addq   $0x1,(%rax)
     65b:	48 8b 5d d0          	mov    -0x30(%rbp),%rbx
     65f:	f6 03 01             	testb  $0x1,(%rbx)
     662:	74 06                	je     66a <balancer_ingress+0x66a>
     664:	66 c7 45 a0 00 00    	movw   $0x0,-0x60(%rbp)
     66a:	8b 43 04             	mov    0x4(%rbx),%eax
     66d:	89 85 7c ff ff ff    	mov    %eax,-0x84(%rbp)
     673:	89 85 54 ff ff ff    	mov    %eax,-0xac(%rbp)
     679:	48 c7 c0 90 d5 09 9f 	mov    $0xffffffff9f09d590,%rax
     680:	ff d0                	call   *%rax
     682:	89 85 50 ff ff ff    	mov    %eax,-0xb0(%rbp)
     688:	48 bf 00 f0 45 d8 81 	movabs $0xffff8881d845f000,%rdi
     68f:	88 ff ff 
     692:	48 8d b5 50 ff ff ff 	lea    -0xb0(%rbp),%rsi
     699:	48 c7 c0 30 c9 09 9f 	mov    $0xffffffff9f09c930,%rax
     6a0:	ff d0                	call   *%rax
     6a2:	48 89 85 70 ff ff ff 	mov    %rax,-0x90(%rbp)
     6a9:	48 85 c0             	test   %rax,%rax
     6ac:	75 40                	jne    6ee <balancer_ingress+0x6ee>
     6ae:	c7 45 c0 03 02 00 00 	movl   $0x203,-0x40(%rbp)
     6b5:	48 bf 00 00 fb d3 81 	movabs $0xffff8881d3fb0000,%rdi
     6bc:	88 ff ff 
     6bf:	48 8d 75 c0          	lea    -0x40(%rbp),%rsi
     6c3:	48 c7 c0 30 c9 09 9f 	mov    $0xffffffff9f09c930,%rax
     6ca:	ff d0                	call   *%rax
     6cc:	48 85 c0             	test   %rax,%rax
     6cf:	0f 84 c1 15 00 00    	je     1c96 <balancer_ingress+0x1c96>
     6d5:	48 83 00 01          	addq   $0x1,(%rax)
     6d9:	48 b8 00 68 5f 07 81 	movabs $0xffff8881075f6800,%rax
     6e0:	88 ff ff 
     6e3:	48 89 85 70 ff ff ff 	mov    %rax,-0x90(%rbp)
     6ea:	48 8b 5d d0          	mov    -0x30(%rbp),%rbx
     6ee:	f6 03 04             	testb  $0x4,(%rbx)
     6f1:	48 89 de             	mov    %rbx,%rsi
     6f4:	0f 84 8b 04 00 00    	je     b85 <balancer_ingress+0xb85>
     6fa:	f6 45 ac 01          	testb  $0x1,-0x54(%rbp)
     6fe:	0f 85 41 04 00 00    	jne    b45 <balancer_ingress+0xb45>
     704:	c7 45 b8 00 00 00 00 	movl   $0x0,-0x48(%rbp)
     70b:	48 bf 00 ac c7 06 81 	movabs $0xffff888106c7ac00,%rdi
     712:	88 ff ff 
     715:	48 8d 75 b8          	lea    -0x48(%rbp),%rsi
     719:	48 c7 c0 30 c9 09 9f 	mov    $0xffffffff9f09c930,%rax
     720:	ff d0                	call   *%rax
     722:	48 85 c0             	test   %rax,%rax
     725:	0f 84 6b 15 00 00    	je     1c96 <balancer_ingress+0x1c96>
     72b:	49 83 c6 66          	add    $0x66,%r14
     72f:	f6 45 ac 01          	testb  $0x1,-0x54(%rbp)
     733:	4d 0f 44 f7          	cmove  %r15,%r14
     737:	49 8d 7e 09          	lea    0x9(%r14),%rdi
     73b:	4c 39 e7             	cmp    %r12,%rdi
     73e:	48 8b 75 d0          	mov    -0x30(%rbp),%rsi
     742:	0f 86 a6 04 00 00    	jbe    bee <balancer_ingress+0xbee>
     748:	48 83 00 01          	addq   $0x1,(%rax)
     74c:	e9 34 04 00 00       	jmp    b85 <balancer_ingress+0xb85>
     751:	41 80 7e 37 04       	cmpb   $0x4,0x37(%r14)
     756:	75 3d                	jne    795 <balancer_ingress+0x795>
     758:	89 7d b4             	mov    %edi,-0x4c(%rbp)
     75b:	c7 45 c0 0d 02 00 00 	movl   $0x20d,-0x40(%rbp)
     762:	48 bf 00 00 fb d3 81 	movabs $0xffff8881d3fb0000,%rdi
     769:	88 ff ff 
     76c:	48 8d 75 c0          	lea    -0x40(%rbp),%rsi
     770:	48 c7 c0 30 c9 09 9f 	mov    $0xffffffff9f09c930,%rax
     777:	ff d0                	call   *%rax
     779:	48 85 c0             	test   %rax,%rax
     77c:	0f 84 14 15 00 00    	je     1c96 <balancer_ingress+0x1c96>
     782:	48 83 00 01          	addq   $0x1,(%rax)
     786:	41 80 7e 3c 04       	cmpb   $0x4,0x3c(%r14)
     78b:	77 05                	ja     792 <balancer_ingress+0x792>
     78d:	48 83 40 08 01       	addq   $0x1,0x8(%rax)
     792:	8b 7d b4             	mov    -0x4c(%rbp),%edi
     795:	49 8d 46 52          	lea    0x52(%r14),%rax
     799:	4c 39 e0             	cmp    %r12,%rax
     79c:	0f 87 f4 14 00 00    	ja     1c96 <balancer_ingress+0x1c96>
     7a2:	8a 03                	mov    (%rbx),%al
     7a4:	24 0f                	and    $0xf,%al
     7a6:	3c 05                	cmp    $0x5,%al
     7a8:	0f 85 e8 14 00 00    	jne    1c96 <balancer_ingress+0x1c96>
     7ae:	41 8a 46 47          	mov    0x47(%r14),%al
     7b2:	88 45 a4             	mov    %al,-0x5c(%rbp)
     7b5:	8a 4d ac             	mov    -0x54(%rbp),%cl
     7b8:	80 c9 01             	or     $0x1,%cl
     7bb:	88 4d ac             	mov    %cl,-0x54(%rbp)
     7be:	41 8b 56 4e          	mov    0x4e(%r14),%edx
     7c2:	89 55 80             	mov    %edx,-0x80(%rbp)
     7c5:	41 8b 56 4a          	mov    0x4a(%r14),%edx
     7c9:	89 55 90             	mov    %edx,-0x70(%rbp)
     7cc:	e9 3f fc ff ff       	jmp    410 <balancer_ingress+0x410>
     7d1:	66 c7 85 68 ff ff ff 	movw   $0x0,-0x98(%rbp)
     7d8:	00 00 
     7da:	48 bf 00 d8 60 1d 81 	movabs $0xffff88811d60d800,%rdi
     7e1:	88 ff ff 
     7e4:	48 8d b5 58 ff ff ff 	lea    -0xa8(%rbp),%rsi
     7eb:	48 c7 c0 30 c9 09 9f 	mov    $0xffffffff9f09c930,%rax
     7f2:	ff d0                	call   *%rax
     7f4:	48 85 c0             	test   %rax,%rax
     7f7:	0f 84 9e 14 00 00    	je     1c9b <balancer_ingress+0x1c9b>
     7fd:	f6 00 88             	testb  $0x88,(%rax)
     800:	0f 85 01 fe ff ff    	jne    607 <balancer_ingress+0x607>
     806:	66 c7 45 a2 00 00    	movw   $0x0,-0x5e(%rbp)
     80c:	e9 f6 fd ff ff       	jmp    607 <balancer_ingress+0x607>
     811:	49 8d 4e 3e          	lea    0x3e(%r14),%rcx
     815:	a8 01                	test   $0x1,%al
     817:	49 0f 44 cf          	cmove  %r15,%rcx
     81b:	48 8d 51 08          	lea    0x8(%rcx),%rdx
     81f:	4c 39 e2             	cmp    %r12,%rdx
     822:	0f 87 6e 14 00 00    	ja     1c96 <balancer_ingress+0x1c96>
     828:	66 89 75 b4          	mov    %si,-0x4c(%rbp)
     82c:	a8 01                	test   $0x1,%al
     82e:	0f 85 95 00 00 00    	jne    8c9 <balancer_ingress+0x8c9>
     834:	0f b7 11             	movzwl (%rcx),%edx
     837:	48 8d 45 a0          	lea    -0x60(%rbp),%rax
     83b:	66 89 55 a0          	mov    %dx,-0x60(%rbp)
     83f:	48 83 c1 02          	add    $0x2,%rcx
     843:	e9 8d 00 00 00       	jmp    8d5 <balancer_ingress+0x8d5>
     848:	41 80 7e 23 04       	cmpb   $0x4,0x23(%r14)
     84d:	75 3f                	jne    88e <balancer_ingress+0x88e>
     84f:	66 89 75 b4          	mov    %si,-0x4c(%rbp)
     853:	c7 45 c0 0d 02 00 00 	movl   $0x20d,-0x40(%rbp)
     85a:	48 bf 00 00 fb d3 81 	movabs $0xffff8881d3fb0000,%rdi
     861:	88 ff ff 
     864:	48 8d 75 c0          	lea    -0x40(%rbp),%rsi
     868:	48 c7 c0 30 c9 09 9f 	mov    $0xffffffff9f09c930,%rax
     86f:	ff d0                	call   *%rax
     871:	48 85 c0             	test   %rax,%rax
     874:	0f 84 1c 14 00 00    	je     1c96 <balancer_ingress+0x1c96>
     87a:	48 83 00 01          	addq   $0x1,(%rax)
     87e:	41 80 7e 28 04       	cmpb   $0x4,0x28(%r14)
     883:	77 05                	ja     88a <balancer_ingress+0x88a>
     885:	48 83 40 08 01       	addq   $0x1,0x8(%rax)
     88a:	0f b7 75 b4          	movzwl -0x4c(%rbp),%esi
     88e:	49 8d 46 3e          	lea    0x3e(%r14),%rax
     892:	4c 39 e0             	cmp    %r12,%rax
     895:	0f 87 fb 13 00 00    	ja     1c96 <balancer_ingress+0x1c96>
     89b:	8a 03                	mov    (%rbx),%al
     89d:	24 0f                	and    $0xf,%al
     89f:	3c 05                	cmp    $0x5,%al
     8a1:	0f 85 ef 13 00 00    	jne    1c96 <balancer_ingress+0x1c96>
     8a7:	41 8a 4e 33          	mov    0x33(%r14),%cl
     8ab:	88 4d a4             	mov    %cl,-0x5c(%rbp)
     8ae:	8a 45 ac             	mov    -0x54(%rbp),%al
     8b1:	0c 01                	or     $0x1,%al
     8b3:	88 45 ac             	mov    %al,-0x54(%rbp)
     8b6:	41 8b 56 3a          	mov    0x3a(%r14),%edx
     8ba:	89 55 80             	mov    %edx,-0x80(%rbp)
     8bd:	41 8b 56 36          	mov    0x36(%r14),%edx
     8c1:	89 55 90             	mov    %edx,-0x70(%rbp)
     8c4:	e9 15 fc ff ff       	jmp    4de <balancer_ingress+0x4de>
     8c9:	0f b7 51 02          	movzwl 0x2(%rcx),%edx
     8cd:	48 8d 45 a0          	lea    -0x60(%rbp),%rax
     8d1:	66 89 55 a0          	mov    %dx,-0x60(%rbp)
     8d5:	0f b7 09             	movzwl (%rcx),%ecx
     8d8:	66 89 48 02          	mov    %cx,0x2(%rax)
     8dc:	8b 45 90             	mov    -0x70(%rbp),%eax
     8df:	89 85 58 ff ff ff    	mov    %eax,-0xa8(%rbp)
     8e5:	0f b7 45 a2          	movzwl -0x5e(%rbp),%eax
     8e9:	66 89 85 68 ff ff ff 	mov    %ax,-0x98(%rbp)
     8f0:	8a 45 a4             	mov    -0x5c(%rbp),%al
     8f3:	88 85 6a ff ff ff    	mov    %al,-0x96(%rbp)
     8f9:	48 bf 00 d8 60 1d 81 	movabs $0xffff88811d60d800,%rdi
     900:	88 ff ff 
     903:	48 8d b5 58 ff ff ff 	lea    -0xa8(%rbp),%rsi
     90a:	48 c7 c0 30 c9 09 9f 	mov    $0xffffffff9f09c930,%rax
     911:	ff d0                	call   *%rax
     913:	48 85 c0             	test   %rax,%rax
     916:	0f 84 63 01 00 00    	je     a7f <balancer_ingress+0xa7f>
     91c:	4c 89 e1             	mov    %r12,%rcx
     91f:	4c 29 f1             	sub    %r14,%rcx
     922:	bb 01 00 00 00       	mov    $0x1,%ebx
     927:	48 81 f9 ea 05 00 00 	cmp    $0x5ea,%rcx
     92e:	0f 8f 67 13 00 00    	jg     1c9b <balancer_ingress+0x1c9b>
     934:	48 89 45 d0          	mov    %rax,-0x30(%rbp)
     938:	c7 85 4c ff ff ff 00 	movl   $0x200,-0xb4(%rbp)
     93f:	02 00 00 
     942:	48 bf 00 00 fb d3 81 	movabs $0xffff8881d3fb0000,%rdi
     949:	88 ff ff 
     94c:	48 8d b5 4c ff ff ff 	lea    -0xb4(%rbp),%rsi
     953:	48 c7 c0 30 c9 09 9f 	mov    $0xffffffff9f09c930,%rax
     95a:	ff d0                	call   *%rax
     95c:	48 85 c0             	test   %rax,%rax
     95f:	0f 84 31 13 00 00    	je     1c96 <balancer_ingress+0x1c96>
     965:	48 89 85 40 ff ff ff 	mov    %rax,-0xc0(%rbp)
     96c:	48 83 00 01          	addq   $0x1,(%rax)
     970:	48 8b 5d d0          	mov    -0x30(%rbp),%rbx
     974:	f6 03 01             	testb  $0x1,(%rbx)
     977:	74 06                	je     97f <balancer_ingress+0x97f>
     979:	66 c7 45 a0 00 00    	movw   $0x0,-0x60(%rbp)
     97f:	8b 43 04             	mov    0x4(%rbx),%eax
     982:	89 85 7c ff ff ff    	mov    %eax,-0x84(%rbp)
     988:	89 85 54 ff ff ff    	mov    %eax,-0xac(%rbp)
     98e:	48 c7 c0 90 d5 09 9f 	mov    $0xffffffff9f09d590,%rax
     995:	ff d0                	call   *%rax
     997:	89 85 50 ff ff ff    	mov    %eax,-0xb0(%rbp)
     99d:	48 bf 00 f0 45 d8 81 	movabs $0xffff8881d845f000,%rdi
     9a4:	88 ff ff 
     9a7:	48 8d b5 50 ff ff ff 	lea    -0xb0(%rbp),%rsi
     9ae:	48 c7 c0 30 c9 09 9f 	mov    $0xffffffff9f09c930,%rax
     9b5:	ff d0                	call   *%rax
     9b7:	48 89 85 70 ff ff ff 	mov    %rax,-0x90(%rbp)
     9be:	48 85 c0             	test   %rax,%rax
     9c1:	75 40                	jne    a03 <balancer_ingress+0xa03>
     9c3:	c7 45 c0 03 02 00 00 	movl   $0x203,-0x40(%rbp)
     9ca:	48 bf 00 00 fb d3 81 	movabs $0xffff8881d3fb0000,%rdi
     9d1:	88 ff ff 
     9d4:	48 8d 75 c0          	lea    -0x40(%rbp),%rsi
     9d8:	48 c7 c0 30 c9 09 9f 	mov    $0xffffffff9f09c930,%rax
     9df:	ff d0                	call   *%rax
     9e1:	48 85 c0             	test   %rax,%rax
     9e4:	0f 84 ac 12 00 00    	je     1c96 <balancer_ingress+0x1c96>
     9ea:	48 83 00 01          	addq   $0x1,(%rax)
     9ee:	48 b8 00 68 5f 07 81 	movabs $0xffff8881075f6800,%rax
     9f5:	88 ff ff 
     9f8:	48 89 85 70 ff ff ff 	mov    %rax,-0x90(%rbp)
     9ff:	48 8b 5d d0          	mov    -0x30(%rbp),%rbx
     a03:	f6 03 04             	testb  $0x4,(%rbx)
     a06:	48 89 d8             	mov    %rbx,%rax
     a09:	0f 84 ae 0c 00 00    	je     16bd <balancer_ingress+0x16bd>
     a0f:	f6 45 ac 01          	testb  $0x1,-0x54(%rbp)
     a13:	0f 85 45 02 00 00    	jne    c5e <balancer_ingress+0xc5e>
     a19:	c7 45 b8 00 00 00 00 	movl   $0x0,-0x48(%rbp)
     a20:	48 bf 00 ac c7 06 81 	movabs $0xffff888106c7ac00,%rdi
     a27:	88 ff ff 
     a2a:	48 8d 75 b8          	lea    -0x48(%rbp),%rsi
     a2e:	48 c7 c0 30 c9 09 9f 	mov    $0xffffffff9f09c930,%rax
     a35:	ff d0                	call   *%rax
     a37:	48 85 c0             	test   %rax,%rax
     a3a:	0f 84 56 12 00 00    	je     1c96 <balancer_ingress+0x1c96>
     a40:	48 89 c3             	mov    %rax,%rbx
     a43:	49 83 c6 3e          	add    $0x3e,%r14
     a47:	f6 45 ac 01          	testb  $0x1,-0x54(%rbp)
     a4b:	4d 0f 44 f7          	cmove  %r15,%r14
     a4f:	49 8d 46 09          	lea    0x9(%r14),%rax
     a53:	4c 39 e0             	cmp    %r12,%rax
     a56:	0f 87 59 0c 00 00    	ja     16b5 <balancer_ingress+0x16b5>
     a5c:	49 83 c6 08          	add    $0x8,%r14
     a60:	41 0f b6 0e          	movzbl (%r14),%ecx
     a64:	f6 c1 80             	test   $0x80,%cl
     a67:	0f 85 0b 09 00 00    	jne    1378 <balancer_ingress+0x1378>
     a6d:	49 83 c6 09          	add    $0x9,%r14
     a71:	4d 39 e6             	cmp    %r12,%r14
     a74:	0f 86 e9 09 00 00    	jbe    1463 <balancer_ingress+0x1463>
     a7a:	e9 36 0c 00 00       	jmp    16b5 <balancer_ingress+0x16b5>
     a7f:	66 c7 85 68 ff ff ff 	movw   $0x0,-0x98(%rbp)
     a86:	00 00 
     a88:	48 bf 00 d8 60 1d 81 	movabs $0xffff88811d60d800,%rdi
     a8f:	88 ff ff 
     a92:	48 8d b5 58 ff ff ff 	lea    -0xa8(%rbp),%rsi
     a99:	48 c7 c0 30 c9 09 9f 	mov    $0xffffffff9f09c930,%rax
     aa0:	ff d0                	call   *%rax
     aa2:	48 85 c0             	test   %rax,%rax
     aa5:	0f 84 f0 11 00 00    	je     1c9b <balancer_ingress+0x1c9b>
     aab:	f6 00 88             	testb  $0x88,(%rax)
     aae:	0f 85 68 fe ff ff    	jne    91c <balancer_ingress+0x91c>
     ab4:	66 c7 45 a2 00 00    	movw   $0x0,-0x5e(%rbp)
     aba:	e9 5d fe ff ff       	jmp    91c <balancer_ingress+0x91c>
     abf:	89 f3                	mov    %esi,%ebx
     ac1:	c7 45 c0 0c 02 00 00 	movl   $0x20c,-0x40(%rbp)
     ac8:	48 bf 00 00 fb d3 81 	movabs $0xffff8881d3fb0000,%rdi
     acf:	88 ff ff 
     ad2:	48 8d 75 c0          	lea    -0x40(%rbp),%rsi
     ad6:	48 c7 c0 30 c9 09 9f 	mov    $0xffffffff9f09c930,%rax
     add:	ff d0                	call   *%rax
     adf:	48 85 c0             	test   %rax,%rax
     ae2:	0f 84 ae 11 00 00    	je     1c96 <balancer_ingress+0x1c96>
     ae8:	48 83 00 01          	addq   $0x1,(%rax)
     aec:	41 8b 4e 26          	mov    0x26(%r14),%ecx
     af0:	0f c9                	bswap  %ecx
     af2:	81 f9 ff 04 00 00    	cmp    $0x4ff,%ecx
     af8:	77 05                	ja     aff <balancer_ingress+0xaff>
     afa:	48 83 40 08 01       	addq   $0x1,0x8(%rax)
     aff:	89 de                	mov    %ebx,%esi
     b01:	49 8d 46 52          	lea    0x52(%r14),%rax
     b05:	4c 39 e0             	cmp    %r12,%rax
     b08:	0f 87 88 11 00 00    	ja     1c96 <balancer_ingress+0x1c96>
     b0e:	48 8d 55 90          	lea    -0x70(%rbp),%rdx
     b12:	41 8a 4e 30          	mov    0x30(%r14),%cl
     b16:	88 4d a4             	mov    %cl,-0x5c(%rbp)
     b19:	8a 45 ac             	mov    -0x54(%rbp),%al
     b1c:	0c 01                	or     $0x1,%al
     b1e:	88 45 ac             	mov    %al,-0x54(%rbp)
     b21:	49 8b 5e 42          	mov    0x42(%r14),%rbx
     b25:	49 8b 7e 4a          	mov    0x4a(%r14),%rdi
     b29:	48 89 7d 88          	mov    %rdi,-0x78(%rbp)
     b2d:	48 89 5d 80          	mov    %rbx,-0x80(%rbp)
     b31:	49 8b 5e 32          	mov    0x32(%r14),%rbx
     b35:	49 8b 7e 3a          	mov    0x3a(%r14),%rdi
     b39:	48 89 1a             	mov    %rbx,(%rdx)
     b3c:	48 89 7a 08          	mov    %rdi,0x8(%rdx)
     b40:	e9 99 f9 ff ff       	jmp    4de <balancer_ingress+0x4de>
     b45:	c7 45 c0 0b 02 00 00 	movl   $0x20b,-0x40(%rbp)
     b4c:	48 bf 00 00 fb d3 81 	movabs $0xffff8881d3fb0000,%rdi
     b53:	88 ff ff 
     b56:	48 8d 75 c0          	lea    -0x40(%rbp),%rsi
     b5a:	48 c7 c0 30 c9 09 9f 	mov    $0xffffffff9f09c930,%rax
     b61:	ff d0                	call   *%rax
     b63:	48 85 c0             	test   %rax,%rax
     b66:	0f 84 2a 11 00 00    	je     1c96 <balancer_ingress+0x1c96>
     b6c:	48 83 00 01          	addq   $0x1,(%rax)
     b70:	41 8a 4e 37          	mov    0x37(%r14),%cl
     b74:	80 c1 fd             	add    $0xfd,%cl
     b77:	80 f9 01             	cmp    $0x1,%cl
     b7a:	48 8b 75 d0          	mov    -0x30(%rbp),%rsi
     b7e:	77 05                	ja     b85 <balancer_ingress+0xb85>
     b80:	48 83 40 08 01       	addq   $0x1,0x8(%rax)
     b85:	44 0f b7 75 a0       	movzwl -0x60(%rbp),%r14d
     b8a:	f6 45 ac 02          	testb  $0x2,-0x54(%rbp)
     b8e:	75 56                	jne    be6 <balancer_ingress+0xbe6>
     b90:	f6 06 02             	testb  $0x2,(%rsi)
     b93:	75 51                	jne    be6 <balancer_ingress+0xbe6>
     b95:	48 8d 75 80          	lea    -0x80(%rbp),%rsi
     b99:	48 c7 c0 30 c9 09 9f 	mov    $0xffffffff9f09c930,%rax
     ba0:	48 8b bd 70 ff ff ff 	mov    -0x90(%rbp),%rdi
     ba7:	ff d0                	call   *%rax
     ba9:	48 85 c0             	test   %rax,%rax
     bac:	74 30                	je     bde <balancer_ingress+0xbde>
     bae:	48 89 c3             	mov    %rax,%rbx
     bb1:	80 7d a4 11          	cmpb   $0x11,-0x5c(%rbp)
     bb5:	0f 85 39 01 00 00    	jne    cf4 <balancer_ingress+0xcf4>
     bbb:	48 c7 c0 30 d6 09 9f 	mov    $0xffffffff9f09d630,%rax
     bc2:	ff d0                	call   *%rax
     bc4:	48 89 c1             	mov    %rax,%rcx
     bc7:	48 2b 4b 08          	sub    0x8(%rbx),%rcx
     bcb:	48 ba 00 ac 23 fc 06 	movabs $0x6fc23ac00,%rdx
     bd2:	00 00 00 
     bd5:	48 39 d1             	cmp    %rdx,%rcx
     bd8:	0f 86 12 01 00 00    	jbe    cf0 <balancer_ingress+0xcf0>
     bde:	45 31 ff             	xor    %r15d,%r15d
     be1:	e9 36 01 00 00       	jmp    d1c <balancer_ingress+0xd1c>
     be6:	45 31 ff             	xor    %r15d,%r15d
     be9:	e9 32 01 00 00       	jmp    d20 <balancer_ingress+0xd20>
     bee:	49 83 c6 08          	add    $0x8,%r14
     bf2:	41 0f b6 0e          	movzbl (%r14),%ecx
     bf6:	f6 c1 80             	test   $0x80,%cl
     bf9:	0f 85 a4 00 00 00    	jne    ca3 <balancer_ingress+0xca3>
     bff:	49 83 c6 09          	add    $0x9,%r14
     c03:	4d 39 e6             	cmp    %r12,%r14
     c06:	0f 87 3c fb ff ff    	ja     748 <balancer_ingress+0x748>
     c0c:	48 85 ff             	test   %rdi,%rdi
     c0f:	0f 84 33 fb ff ff    	je     748 <balancer_ingress+0x748>
     c15:	48 89 c3             	mov    %rax,%rbx
     c18:	0f b6 0f             	movzbl (%rdi),%ecx
     c1b:	89 ca                	mov    %ecx,%edx
     c1d:	c0 ea 06             	shr    $0x6,%dl
     c20:	80 fa 03             	cmp    $0x3,%dl
     c23:	0f 84 c0 07 00 00    	je     13e9 <balancer_ingress+0x13e9>
     c29:	80 fa 02             	cmp    $0x2,%dl
     c2c:	0f 84 dc 07 00 00    	je     140e <balancer_ingress+0x140e>
     c32:	80 fa 01             	cmp    $0x1,%dl
     c35:	48 8b 75 d0          	mov    -0x30(%rbp),%rsi
     c39:	48 89 d8             	mov    %rbx,%rax
     c3c:	0f 85 06 fb ff ff    	jne    748 <balancer_ingress+0x748>
     c42:	83 e1 3f             	and    $0x3f,%ecx
     c45:	48 c1 e1 0a          	shl    $0xa,%rcx
     c49:	0f b6 57 01          	movzbl 0x1(%rdi),%edx
     c4d:	48 8d 0c 91          	lea    (%rcx,%rdx,4),%rcx
     c51:	8a 47 02             	mov    0x2(%rdi),%al
     c54:	c0 e8 06             	shr    $0x6,%al
     c57:	b2 01                	mov    $0x1,%dl
     c59:	e9 c8 07 00 00       	jmp    1426 <balancer_ingress+0x1426>
     c5e:	c7 45 c0 0b 02 00 00 	movl   $0x20b,-0x40(%rbp)
     c65:	48 bf 00 00 fb d3 81 	movabs $0xffff8881d3fb0000,%rdi
     c6c:	88 ff ff 
     c6f:	48 8d 75 c0          	lea    -0x40(%rbp),%rsi
     c73:	48 c7 c0 30 c9 09 9f 	mov    $0xffffffff9f09c930,%rax
     c7a:	ff d0                	call   *%rax
     c7c:	48 85 c0             	test   %rax,%rax
     c7f:	0f 84 11 10 00 00    	je     1c96 <balancer_ingress+0x1c96>
     c85:	48 83 00 01          	addq   $0x1,(%rax)
     c89:	41 8a 4e 23          	mov    0x23(%r14),%cl
     c8d:	80 e1 fd             	and    $0xfd,%cl
     c90:	80 f9 01             	cmp    $0x1,%cl
     c93:	0f 85 20 0a 00 00    	jne    16b9 <balancer_ingress+0x16b9>
     c99:	48 83 40 08 01       	addq   $0x1,0x8(%rax)
     c9e:	e9 16 0a 00 00       	jmp    16b9 <balancer_ingress+0x16b9>
     ca3:	49 8d 56 0e          	lea    0xe(%r14),%rdx
     ca7:	4c 39 e2             	cmp    %r12,%rdx
     caa:	0f 87 98 fa ff ff    	ja     748 <balancer_ingress+0x748>
     cb0:	f6 c1 20             	test   $0x20,%cl
     cb3:	0f 85 0c 07 00 00    	jne    13c5 <balancer_ingress+0x13c5>
     cb9:	48 83 40 08 01       	addq   $0x1,0x8(%rax)
     cbe:	8b 85 7c ff ff ff    	mov    -0x84(%rbp),%eax
     cc4:	89 45 c0             	mov    %eax,-0x40(%rbp)
     cc7:	48 bf 00 c0 06 49 81 	movabs $0xffff88814906c000,%rdi
     cce:	88 ff ff 
     cd1:	48 8d 75 c0          	lea    -0x40(%rbp),%rsi
     cd5:	48 c7 c0 30 c9 09 9f 	mov    $0xffffffff9f09c930,%rax
     cdc:	ff d0                	call   *%rax
     cde:	48 85 c0             	test   %rax,%rax
     ce1:	74 04                	je     ce7 <balancer_ingress+0xce7>
     ce3:	48 83 00 01          	addq   $0x1,(%rax)
     ce7:	48 8b 75 d0          	mov    -0x30(%rbp),%rsi
     ceb:	e9 95 fe ff ff       	jmp    b85 <balancer_ingress+0xb85>
     cf0:	48 89 43 08          	mov    %rax,0x8(%rbx)
     cf4:	8b 03                	mov    (%rbx),%eax
     cf6:	45 31 ff             	xor    %r15d,%r15d
     cf9:	48 3d 00 10 00 00    	cmp    $0x1000,%rax
     cff:	89 45 a8             	mov    %eax,-0x58(%rbp)
     d02:	48 8d 04 80          	lea    (%rax,%rax,4),%rax
     d06:	48 b9 00 10 f4 f5 02 	movabs $0xffffc902f5f41000,%rcx
     d0d:	c9 ff ff 
     d10:	48 8d 84 81 00 01 00 	lea    0x100(%rcx,%rax,4),%rax
     d17:	00 
     d18:	4c 0f 42 f8          	cmovb  %rax,%r15
     d1c:	48 8b 75 d0          	mov    -0x30(%rbp),%rsi
     d20:	80 7d a4 11          	cmpb   $0x11,-0x5c(%rbp)
     d24:	0f 85 c9 00 00 00    	jne    df3 <balancer_ingress+0xdf3>
     d2a:	f6 46 01 02          	testb  $0x2,0x1(%rsi)
     d2e:	0f 84 bf 00 00 00    	je     df3 <balancer_ingress+0xdf3>
     d34:	c7 45 c0 02 02 00 00 	movl   $0x202,-0x40(%rbp)
     d3b:	48 bf 00 00 fb d3 81 	movabs $0xffff8881d3fb0000,%rdi
     d42:	88 ff ff 
     d45:	48 8d 75 c0          	lea    -0x40(%rbp),%rsi
     d49:	48 c7 c0 30 c9 09 9f 	mov    $0xffffffff9f09c930,%rax
     d50:	ff d0                	call   *%rax
     d52:	48 85 c0             	test   %rax,%rax
     d55:	0f 84 98 00 00 00    	je     df3 <balancer_ingress+0xdf3>
     d5b:	48 89 c3             	mov    %rax,%rbx
     d5e:	48 c7 c0 30 d6 09 9f 	mov    $0xffffffff9f09d630,%rax
     d65:	ff d0                	call   *%rax
     d67:	48 89 c1             	mov    %rax,%rcx
     d6a:	48 2b 4b 08          	sub    0x8(%rbx),%rcx
     d6e:	48 81 f9 01 ca 9a 3b 	cmp    $0x3b9aca01,%rcx
     d75:	72 0d                	jb     d84 <balancer_ingress+0xd84>
     d77:	48 c7 03 01 00 00 00 	movq   $0x1,(%rbx)
     d7e:	48 89 43 08          	mov    %rax,0x8(%rbx)
     d82:	eb 12                	jmp    d96 <balancer_ingress+0xd96>
     d84:	48 8b 03             	mov    (%rbx),%rax
     d87:	48 83 c0 01          	add    $0x1,%rax
     d8b:	48 89 03             	mov    %rax,(%rbx)
     d8e:	48 3d 49 e8 01 00    	cmp    $0x1e849,%rax
     d94:	73 5d                	jae    df3 <balancer_ingress+0xdf3>
     d96:	48 bf 00 e0 63 50 81 	movabs $0xffff88815063e000,%rdi
     d9d:	88 ff ff 
     da0:	48 8d b5 58 ff ff ff 	lea    -0xa8(%rbp),%rsi
     da7:	48 c7 c3 30 c9 09 9f 	mov    $0xffffffff9f09c930,%rbx
     dae:	ff d3                	call   *%rbx
     db0:	48 85 c0             	test   %rax,%rax
     db3:	74 3e                	je     df3 <balancer_ingress+0xdf3>
     db5:	48 8d 75 a8          	lea    -0x58(%rbp),%rsi
     db9:	48 89 c7             	mov    %rax,%rdi
     dbc:	ff d3                	call   *%rbx
     dbe:	48 85 c0             	test   %rax,%rax
     dc1:	74 30                	je     df3 <balancer_ingress+0xdf3>
     dc3:	c7 45 c0 0f 02 00 00 	movl   $0x20f,-0x40(%rbp)
     dca:	48 bf 00 00 fb d3 81 	movabs $0xffff8881d3fb0000,%rdi
     dd1:	88 ff ff 
     dd4:	48 8d 75 c0          	lea    -0x40(%rbp),%rsi
     dd8:	48 c7 c0 30 c9 09 9f 	mov    $0xffffffff9f09c930,%rax
     ddf:	ff d0                	call   *%rax
     de1:	48 85 c0             	test   %rax,%rax
     de4:	0f 84 62 01 00 00    	je     f4c <balancer_ingress+0xf4c>
     dea:	48 83 00 01          	addq   $0x1,(%rax)
     dee:	e9 59 01 00 00       	jmp    f4c <balancer_ingress+0xf4c>
     df3:	4d 85 ff             	test   %r15,%r15
     df6:	0f 84 50 01 00 00    	je     f4c <balancer_ingress+0xf4c>
     dfc:	48 bf 00 00 fb d3 81 	movabs $0xffff8881d3fb0000,%rdi
     e03:	88 ff ff 
     e06:	48 8d b5 54 ff ff ff 	lea    -0xac(%rbp),%rsi
     e0d:	49 c7 c4 30 c9 09 9f 	mov    $0xffffffff9f09c930,%r12
     e14:	41 ff d4             	call   *%r12
     e17:	bb 01 00 00 00       	mov    $0x1,%ebx
     e1c:	48 85 c0             	test   %rax,%rax
     e1f:	0f 84 76 0e 00 00    	je     1c9b <balancer_ingress+0x1c9b>
     e25:	4c 89 7d d0          	mov    %r15,-0x30(%rbp)
     e29:	45 89 f7             	mov    %r14d,%r15d
     e2c:	8b 4d b4             	mov    -0x4c(%rbp),%ecx
     e2f:	66 c1 c1 08          	rol    $0x8,%cx
     e33:	48 83 00 01          	addq   $0x1,(%rax)
     e37:	89 4d b4             	mov    %ecx,-0x4c(%rbp)
     e3a:	44 0f b7 f1          	movzwl %cx,%r14d
     e3e:	4c 01 70 08          	add    %r14,0x8(%rax)
     e42:	48 8d 75 a8          	lea    -0x58(%rbp),%rsi
     e46:	48 bf 00 b0 f5 f5 02 	movabs $0xffffc902f5f5b000,%rdi
     e4d:	c9 ff ff 
     e50:	41 ff d4             	call   *%r12
     e53:	48 85 c0             	test   %rax,%rax
     e56:	0f 84 3f 0e 00 00    	je     1c9b <balancer_ingress+0x1c9b>
     e5c:	48 83 00 01          	addq   $0x1,(%rax)
     e60:	4c 01 70 08          	add    %r14,0x8(%rax)
     e64:	44 89 f8             	mov    %r15d,%eax
     e67:	66 89 45 a0          	mov    %ax,-0x60(%rbp)
     e6b:	48 8b 45 d0          	mov    -0x30(%rbp),%rax
     e6f:	f6 40 10 01          	testb  $0x1,0x10(%rax)
     e73:	0f 85 7e 01 00 00    	jne    ff7 <balancer_ingress+0xff7>
     e79:	44 0f b7 65 82       	movzwl -0x7e(%rbp),%r12d
     e7e:	48 c7 c0 20 5c 23 a1 	mov    $0xffffffffa1235c20,%rax
     e85:	4c 89 ef             	mov    %r13,%rdi
     e88:	be ec ff ff ff       	mov    $0xffffffec,%esi
     e8d:	ff d0                	call   *%rax
     e8f:	85 c0                	test   %eax,%eax
     e91:	0f 85 04 0e 00 00    	jne    1c9b <balancer_ingress+0x1c9b>
     e97:	49 8b 45 00          	mov    0x0(%r13),%rax
     e9b:	49 8b 4d 08          	mov    0x8(%r13),%rcx
     e9f:	48 8d 50 0e          	lea    0xe(%rax),%rdx
     ea3:	48 39 ca             	cmp    %rcx,%rdx
     ea6:	0f 87 ef 0d 00 00    	ja     1c9b <balancer_ingress+0x1c9b>
     eac:	48 8d 50 22          	lea    0x22(%rax),%rdx
     eb0:	48 39 ca             	cmp    %rcx,%rdx
     eb3:	0f 87 e2 0d 00 00    	ja     1c9b <balancer_ingress+0x1c9b>
     eb9:	66 41 c1 c7 08       	rol    $0x8,%r15w
     ebe:	45 31 fc             	xor    %r15d,%r12d
     ec1:	41 c1 e4 10          	shl    $0x10,%r12d
     ec5:	41 8d 94 24 ac 10 00 	lea    0x10ac(%r12),%edx
     ecc:	00 
     ecd:	48 b9 00 cc c7 06 81 	movabs $0xffff888106c7cc00,%rcx
     ed4:	88 ff ff 
     ed7:	0f b7 b1 04 01 00 00 	movzwl 0x104(%rcx),%esi
     ede:	66 89 70 04          	mov    %si,0x4(%rax)
     ee2:	8b 89 00 01 00 00    	mov    0x100(%rcx),%ecx
     ee8:	89 08                	mov    %ecx,(%rax)
     eea:	8b 48 14             	mov    0x14(%rax),%ecx
     eed:	89 48 06             	mov    %ecx,0x6(%rax)
     ef0:	0f b7 48 18          	movzwl 0x18(%rax),%ecx
     ef4:	66 89 48 0a          	mov    %cx,0xa(%rax)
     ef8:	66 c7 40 0c 08 00    	movw   $0x8,0xc(%rax)
     efe:	8a 5d ad             	mov    -0x53(%rbp),%bl
     f01:	48 8b 4d d0          	mov    -0x30(%rbp),%rcx
     f05:	8b 09                	mov    (%rcx),%ecx
     f07:	c6 40 0e 45          	movb   $0x45,0xe(%rax)
     f0b:	88 58 0f             	mov    %bl,0xf(%rax)
     f0e:	8b 75 b4             	mov    -0x4c(%rbp),%esi
     f11:	83 c6 14             	add    $0x14,%esi
     f14:	66 c1 c6 08          	rol    $0x8,%si
     f18:	66 89 70 10          	mov    %si,0x10(%rax)
     f1c:	c7 40 12 00 00 00 00 	movl   $0x0,0x12(%rax)
     f23:	89 48 1e             	mov    %ecx,0x1e(%rax)
     f26:	89 50 1a             	mov    %edx,0x1a(%rax)
     f29:	66 c7 40 16 40 04    	movw   $0x440,0x16(%rax)
     f2f:	0f b7 50 0e          	movzwl 0xe(%rax),%edx
     f33:	0f b7 f6             	movzwl %si,%esi
     f36:	0f b7 78 16          	movzwl 0x16(%rax),%edi
     f3a:	41 c1 ec 10          	shr    $0x10,%r12d
     f3e:	49 01 f4             	add    %rsi,%r12
     f41:	0f b7 f1             	movzwl %cx,%esi
     f44:	4c 01 e6             	add    %r12,%rsi
     f47:	e9 2e 0a 00 00       	jmp    197a <balancer_ingress+0x197a>
     f4c:	80 7d a4 06          	cmpb   $0x6,-0x5c(%rbp)
     f50:	75 37                	jne    f89 <balancer_ingress+0xf89>
     f52:	c7 45 c0 01 02 00 00 	movl   $0x201,-0x40(%rbp)
     f59:	48 bf 00 00 fb d3 81 	movabs $0xffff8881d3fb0000,%rdi
     f60:	88 ff ff 
     f63:	48 8d 75 c0          	lea    -0x40(%rbp),%rsi
     f67:	48 c7 c0 30 c9 09 9f 	mov    $0xffffffff9f09c930,%rax
     f6e:	ff d0                	call   *%rax
     f70:	48 85 c0             	test   %rax,%rax
     f73:	0f 84 1d 0d 00 00    	je     1c96 <balancer_ingress+0x1c96>
     f79:	8b 4d ac             	mov    -0x54(%rbp),%ecx
     f7c:	c1 e1 02             	shl    $0x2,%ecx
     f7f:	f7 d1                	not    %ecx
     f81:	83 e1 08             	and    $0x8,%ecx
     f84:	48 83 04 08 01       	addq   $0x1,(%rax,%rcx,1)
     f89:	48 c7 45 c8 00 00 00 	movq   $0x0,-0x38(%rbp)
     f90:	00 
     f91:	48 c7 45 c0 00 00 00 	movq   $0x0,-0x40(%rbp)
     f98:	00 
     f99:	c7 45 b8 02 02 00 00 	movl   $0x202,-0x48(%rbp)
     fa0:	48 bf 00 00 fb d3 81 	movabs $0xffff8881d3fb0000,%rdi
     fa7:	88 ff ff 
     faa:	48 8d 75 b8          	lea    -0x48(%rbp),%rsi
     fae:	48 c7 c0 30 c9 09 9f 	mov    $0xffffffff9f09c930,%rax
     fb5:	ff d0                	call   *%rax
     fb7:	41 b7 01             	mov    $0x1,%r15b
     fba:	48 85 c0             	test   %rax,%rax
     fbd:	0f 84 da 00 00 00    	je     109d <balancer_ingress+0x109d>
     fc3:	48 89 c3             	mov    %rax,%rbx
     fc6:	48 c7 c0 30 d6 09 9f 	mov    $0xffffffff9f09d630,%rax
     fcd:	ff d0                	call   *%rax
     fcf:	48 89 c1             	mov    %rax,%rcx
     fd2:	48 2b 4b 08          	sub    0x8(%rbx),%rcx
     fd6:	48 81 f9 01 ca 9a 3b 	cmp    $0x3b9aca01,%rcx
     fdd:	0f 82 c2 00 00 00    	jb     10a5 <balancer_ingress+0x10a5>
     fe3:	48 c7 03 01 00 00 00 	movq   $0x1,(%rbx)
     fea:	48 89 43 08          	mov    %rax,0x8(%rbx)
     fee:	48 8b 4d d0          	mov    -0x30(%rbp),%rcx
     ff2:	e9 c5 00 00 00       	jmp    10bc <balancer_ingress+0x10bc>
     ff7:	48 c7 c0 20 5c 23 a1 	mov    $0xffffffffa1235c20,%rax
     ffe:	4c 89 ef             	mov    %r13,%rdi
    1001:	be d8 ff ff ff       	mov    $0xffffffd8,%esi
    1006:	ff d0                	call   *%rax
    1008:	85 c0                	test   %eax,%eax
    100a:	0f 85 8b 0c 00 00    	jne    1c9b <balancer_ingress+0x1c9b>
    1010:	49 8b 45 00          	mov    0x0(%r13),%rax
    1014:	49 8b 4d 08          	mov    0x8(%r13),%rcx
    1018:	48 8d 50 0e          	lea    0xe(%rax),%rdx
    101c:	48 39 ca             	cmp    %rcx,%rdx
    101f:	0f 87 76 0c 00 00    	ja     1c9b <balancer_ingress+0x1c9b>
    1025:	48 8d 50 36          	lea    0x36(%rax),%rdx
    1029:	48 39 ca             	cmp    %rcx,%rdx
    102c:	0f 87 69 0c 00 00    	ja     1c9b <balancer_ingress+0x1c9b>
    1032:	48 b9 00 cc c7 06 81 	movabs $0xffff888106c7cc00,%rcx
    1039:	88 ff ff 
    103c:	0f b7 91 04 01 00 00 	movzwl 0x104(%rcx),%edx
    1043:	66 89 50 04          	mov    %dx,0x4(%rax)
    1047:	8b 89 00 01 00 00    	mov    0x100(%rcx),%ecx
    104d:	89 08                	mov    %ecx,(%rax)
    104f:	8b 48 28             	mov    0x28(%rax),%ecx
    1052:	89 48 06             	mov    %ecx,0x6(%rax)
    1055:	0f b7 48 2c          	movzwl 0x2c(%rax),%ecx
    1059:	66 89 48 0a          	mov    %cx,0xa(%rax)
    105d:	66 c7 40 0c 86 dd    	movw   $0xdd86,0xc(%rax)
    1063:	0f b7 4d a0          	movzwl -0x60(%rbp),%ecx
    1067:	33 4d 8c             	xor    -0x74(%rbp),%ecx
    106a:	8b 75 b4             	mov    -0x4c(%rbp),%esi
    106d:	83 c6 28             	add    $0x28,%esi
    1070:	8a 5d ad             	mov    -0x53(%rbp),%bl
    1073:	66 c7 40 10 00 00    	movw   $0x0,0x10(%rax)
    1079:	89 da                	mov    %ebx,%edx
    107b:	c0 ea 04             	shr    $0x4,%dl
    107e:	80 ca 60             	or     $0x60,%dl
    1081:	88 50 0e             	mov    %dl,0xe(%rax)
    1084:	c0 e3 04             	shl    $0x4,%bl
    1087:	88 58 0f             	mov    %bl,0xf(%rax)
    108a:	66 c7 40 14 29 40    	movw   $0x4029,0x14(%rax)
    1090:	66 c1 c6 08          	rol    $0x8,%si
    1094:	66 89 70 12          	mov    %si,0x12(%rax)
    1098:	e9 9c 0a 00 00       	jmp    1b39 <balancer_ingress+0x1b39>
    109d:	31 c0                	xor    %eax,%eax
    109f:	48 8b 4d d0          	mov    -0x30(%rbp),%rcx
    10a3:	eb 1a                	jmp    10bf <balancer_ingress+0x10bf>
    10a5:	48 8b 0b             	mov    (%rbx),%rcx
    10a8:	48 83 c1 01          	add    $0x1,%rcx
    10ac:	48 89 0b             	mov    %rcx,(%rbx)
    10af:	48 81 f9 48 e8 01 00 	cmp    $0x1e848,%rcx
    10b6:	48 8b 4d d0          	mov    -0x30(%rbp),%rcx
    10ba:	77 03                	ja     10bf <balancer_ingress+0x10bf>
    10bc:	45 31 ff             	xor    %r15d,%r15d
    10bf:	f6 01 08             	testb  $0x8,(%rcx)
    10c2:	75 1e                	jne    10e2 <balancer_ingress+0x10e2>
    10c4:	45 89 f4             	mov    %r14d,%r12d
    10c7:	8b 7d 80             	mov    -0x80(%rbp),%edi
    10ca:	8b 4d 84             	mov    -0x7c(%rbp),%ecx
    10cd:	8b 55 88             	mov    -0x78(%rbp),%edx
    10d0:	44 8a 5d 8f          	mov    -0x71(%rbp),%r11b
    10d4:	44 8a 55 8e          	mov    -0x72(%rbp),%r10b
    10d8:	44 8a 4d 8d          	mov    -0x73(%rbp),%r9b
    10dc:	44 8a 45 8c          	mov    -0x74(%rbp),%r8b
    10e0:	eb 2d                	jmp    110f <balancer_ingress+0x110f>
    10e2:	45 89 f4             	mov    %r14d,%r12d
    10e5:	0f b7 4d a2          	movzwl -0x5e(%rbp),%ecx
    10e9:	66 89 4d a0          	mov    %cx,-0x60(%rbp)
    10ed:	48 c7 45 80 00 00 00 	movq   $0x0,-0x80(%rbp)
    10f4:	00 
    10f5:	48 c7 45 88 00 00 00 	movq   $0x0,-0x78(%rbp)
    10fc:	00 
    10fd:	45 31 c0             	xor    %r8d,%r8d
    1100:	45 31 c9             	xor    %r9d,%r9d
    1103:	45 31 d2             	xor    %r10d,%r10d
    1106:	45 31 db             	xor    %r11d,%r11d
    1109:	31 d2                	xor    %edx,%edx
    110b:	31 c9                	xor    %ecx,%ecx
    110d:	31 ff                	xor    %edi,%edi
    110f:	8d 9a ff c0 ad de    	lea    -0x21523f01(%rdx),%ebx
    1115:	29 d7                	sub    %edx,%edi
    1117:	c1 c3 04             	rol    $0x4,%ebx
    111a:	31 fb                	xor    %edi,%ebx
    111c:	89 cf                	mov    %ecx,%edi
    111e:	81 c7 ff c0 ad de    	add    $0xdeadc0ff,%edi
    1124:	01 ca                	add    %ecx,%edx
    1126:	81 c2 fe 81 5b bd    	add    $0xbd5b81fe,%edx
    112c:	29 df                	sub    %ebx,%edi
    112e:	89 de                	mov    %ebx,%esi
    1130:	c1 c6 06             	rol    $0x6,%esi
    1133:	31 fe                	xor    %edi,%esi
    1135:	01 d3                	add    %edx,%ebx
    1137:	89 f1                	mov    %esi,%ecx
    1139:	c1 c1 08             	rol    $0x8,%ecx
    113c:	29 f2                	sub    %esi,%edx
    113e:	31 d1                	xor    %edx,%ecx
    1140:	01 de                	add    %ebx,%esi
    1142:	29 cb                	sub    %ecx,%ebx
    1144:	89 cf                	mov    %ecx,%edi
    1146:	c1 c7 10             	rol    $0x10,%edi
    1149:	31 df                	xor    %ebx,%edi
    114b:	01 f1                	add    %esi,%ecx
    114d:	29 fe                	sub    %edi,%esi
    114f:	89 fa                	mov    %edi,%edx
    1151:	c1 c2 13             	rol    $0x13,%edx
    1154:	31 f2                	xor    %esi,%edx
    1156:	01 cf                	add    %ecx,%edi
    1158:	29 d1                	sub    %edx,%ecx
    115a:	41 89 d6             	mov    %edx,%r14d
    115d:	41 c1 c6 04          	rol    $0x4,%r14d
    1161:	01 fa                	add    %edi,%edx
    1163:	41 0f b6 db          	movzbl %r11b,%ebx
    1167:	c1 e3 18             	shl    $0x18,%ebx
    116a:	41 0f b6 f2          	movzbl %r10b,%esi
    116e:	c1 e6 10             	shl    $0x10,%esi
    1171:	09 de                	or     %ebx,%esi
    1173:	41 0f b6 d9          	movzbl %r9b,%ebx
    1177:	c1 e3 08             	shl    $0x8,%ebx
    117a:	09 f3                	or     %esi,%ebx
    117c:	41 0f b6 f0          	movzbl %r8b,%esi
    1180:	09 de                	or     %ebx,%esi
    1182:	01 fe                	add    %edi,%esi
    1184:	31 d1                	xor    %edx,%ecx
    1186:	44 31 f1             	xor    %r14d,%ecx
    1189:	89 d7                	mov    %edx,%edi
    118b:	c1 c7 0e             	rol    $0xe,%edi
    118e:	29 f9                	sub    %edi,%ecx
    1190:	31 ce                	xor    %ecx,%esi
    1192:	89 cf                	mov    %ecx,%edi
    1194:	c1 c7 0b             	rol    $0xb,%edi
    1197:	29 fe                	sub    %edi,%esi
    1199:	31 f2                	xor    %esi,%edx
    119b:	89 f7                	mov    %esi,%edi
    119d:	c1 c7 19             	rol    $0x19,%edi
    11a0:	29 fa                	sub    %edi,%edx
    11a2:	31 d1                	xor    %edx,%ecx
    11a4:	89 d7                	mov    %edx,%edi
    11a6:	c1 c7 10             	rol    $0x10,%edi
    11a9:	29 f9                	sub    %edi,%ecx
    11ab:	31 ce                	xor    %ecx,%esi
    11ad:	89 cf                	mov    %ecx,%edi
    11af:	c1 c7 04             	rol    $0x4,%edi
    11b2:	29 fe                	sub    %edi,%esi
    11b4:	31 f2                	xor    %esi,%edx
    11b6:	c1 c6 0e             	rol    $0xe,%esi
    11b9:	29 f2                	sub    %esi,%edx
    11bb:	31 d1                	xor    %edx,%ecx
    11bd:	c1 c2 18             	rol    $0x18,%edx
    11c0:	29 d1                	sub    %edx,%ecx
    11c2:	be f7 c0 ad e0       	mov    $0xe0adc0f7,%esi
    11c7:	03 75 a0             	add    -0x60(%rbp),%esi
    11ca:	81 c1 f7 c0 ad e0    	add    $0xe0adc0f7,%ecx
    11d0:	89 f2                	mov    %esi,%edx
    11d2:	81 f2 f7 c0 ad e0    	xor    $0xe0adc0f7,%edx
    11d8:	89 f7                	mov    %esi,%edi
    11da:	c1 c7 0e             	rol    $0xe,%edi
    11dd:	29 fa                	sub    %edi,%edx
    11df:	31 d1                	xor    %edx,%ecx
    11e1:	89 d7                	mov    %edx,%edi
    11e3:	c1 c7 0b             	rol    $0xb,%edi
    11e6:	29 f9                	sub    %edi,%ecx
    11e8:	31 ce                	xor    %ecx,%esi
    11ea:	89 cf                	mov    %ecx,%edi
    11ec:	c1 c7 19             	rol    $0x19,%edi
    11ef:	29 fe                	sub    %edi,%esi
    11f1:	31 f2                	xor    %esi,%edx
    11f3:	89 f7                	mov    %esi,%edi
    11f5:	c1 c7 10             	rol    $0x10,%edi
    11f8:	29 fa                	sub    %edi,%edx
    11fa:	31 d1                	xor    %edx,%ecx
    11fc:	89 d7                	mov    %edx,%edi
    11fe:	c1 c7 04             	rol    $0x4,%edi
    1201:	29 f9                	sub    %edi,%ecx
    1203:	31 ce                	xor    %ecx,%esi
    1205:	c1 c1 0e             	rol    $0xe,%ecx
    1208:	29 ce                	sub    %ecx,%esi
    120a:	31 f2                	xor    %esi,%edx
    120c:	c1 c6 18             	rol    $0x18,%esi
    120f:	29 f2                	sub    %esi,%edx
    1211:	b9 01 00 ff ff       	mov    $0xffff0001,%ecx
    1216:	48 0f af ca          	imul   %rdx,%rcx
    121a:	48 c1 e9 30          	shr    $0x30,%rcx
    121e:	89 ce                	mov    %ecx,%esi
    1220:	c1 e6 10             	shl    $0x10,%esi
    1223:	09 ce                	or     %ecx,%esi
    1225:	29 f2                	sub    %esi,%edx
    1227:	48 8b 4d d0          	mov    -0x30(%rbp),%rcx
    122b:	8b 71 04             	mov    0x4(%rcx),%esi
    122e:	89 f1                	mov    %esi,%ecx
    1230:	c1 e1 10             	shl    $0x10,%ecx
    1233:	01 f1                	add    %esi,%ecx
    1235:	01 d1                	add    %edx,%ecx
    1237:	81 f9 ff 01 00 02    	cmp    $0x20001ff,%ecx
    123d:	0f 87 53 0a 00 00    	ja     1c96 <balancer_ingress+0x1c96>
    1243:	89 c9                	mov    %ecx,%ecx
    1245:	48 ba 00 c0 eb e5 02 	movabs $0xffffc902e5ebc000,%rdx
    124c:	c9 ff ff 
    124f:	8b 9c 8a 00 01 00 00 	mov    0x100(%rdx,%rcx,4),%ebx
    1256:	48 85 db             	test   %rbx,%rbx
    1259:	0f 84 0f 0a 00 00    	je     1c6e <balancer_ingress+0x1c6e>
    125f:	89 5d a8             	mov    %ebx,-0x58(%rbp)
    1262:	81 fb 00 10 00 00    	cmp    $0x1000,%ebx
    1268:	0f 83 d7 09 00 00    	jae    1c45 <balancer_ingress+0x1c45>
    126e:	48 83 bd 70 ff ff ff 	cmpq   $0x0,-0x90(%rbp)
    1275:	00 
    1276:	74 10                	je     1288 <balancer_ingress+0x1288>
    1278:	48 8b 4d d0          	mov    -0x30(%rbp),%rcx
    127c:	8a 09                	mov    (%rcx),%cl
    127e:	80 e1 02             	and    $0x2,%cl
    1281:	d0 e9                	shr    %cl
    1283:	41 08 cf             	or     %cl,%r15b
    1286:	74 05                	je     128d <balancer_ingress+0x128d>
    1288:	41 89 d8             	mov    %ebx,%r8d
    128b:	eb 2b                	jmp    12b8 <balancer_ingress+0x12b8>
    128d:	80 7d a4 11          	cmpb   $0x11,-0x5c(%rbp)
    1291:	75 04                	jne    1297 <balancer_ingress+0x1297>
    1293:	48 89 45 c8          	mov    %rax,-0x38(%rbp)
    1297:	89 5d c0             	mov    %ebx,-0x40(%rbp)
    129a:	48 8d 75 80          	lea    -0x80(%rbp),%rsi
    129e:	48 8d 55 c0          	lea    -0x40(%rbp),%rdx
    12a2:	48 c7 c0 c0 c9 09 9f 	mov    $0xffffffff9f09c9c0,%rax
    12a9:	48 8b bd 70 ff ff ff 	mov    -0x90(%rbp),%rdi
    12b0:	31 c9                	xor    %ecx,%ecx
    12b2:	ff d0                	call   *%rax
    12b4:	44 8b 45 a8          	mov    -0x58(%rbp),%r8d
    12b8:	48 b9 00 a8 c7 06 81 	movabs $0xffff888106c7a800,%rcx
    12bf:	88 ff ff 
    12c2:	8b 81 00 01 00 00    	mov    0x100(%rcx),%eax
    12c8:	b2 01                	mov    $0x1,%dl
    12ca:	3b 85 58 ff ff ff    	cmp    -0xa8(%rbp),%eax
    12d0:	75 2b                	jne    12fd <balancer_ingress+0x12fd>
    12d2:	8b 81 04 01 00 00    	mov    0x104(%rcx),%eax
    12d8:	3b 85 5c ff ff ff    	cmp    -0xa4(%rbp),%eax
    12de:	75 1d                	jne    12fd <balancer_ingress+0x12fd>
    12e0:	8b 81 08 01 00 00    	mov    0x108(%rcx),%eax
    12e6:	3b 85 60 ff ff ff    	cmp    -0xa0(%rbp),%eax
    12ec:	75 0f                	jne    12fd <balancer_ingress+0x12fd>
    12ee:	8b 81 0c 01 00 00    	mov    0x10c(%rcx),%eax
    12f4:	3b 85 64 ff ff ff    	cmp    -0x9c(%rbp),%eax
    12fa:	0f 95 c2             	setne  %dl
    12fd:	0f b7 b9 10 01 00 00 	movzwl 0x110(%rcx),%edi
    1304:	0f b7 b5 68 ff ff ff 	movzwl -0x98(%rbp),%esi
    130b:	8a 85 6a ff ff ff    	mov    -0x96(%rbp),%al
    1311:	88 81 12 01 00 00    	mov    %al,0x112(%rcx)
    1317:	84 d2                	test   %dl,%dl
    1319:	75 30                	jne    134b <balancer_ingress+0x134b>
    131b:	66 39 f7             	cmp    %si,%di
    131e:	75 2b                	jne    134b <balancer_ingress+0x134b>
    1320:	84 c0                	test   %al,%al
    1322:	74 27                	je     134b <balancer_ingress+0x134b>
    1324:	44 89 45 c0          	mov    %r8d,-0x40(%rbp)
    1328:	48 bf 00 50 f6 f5 02 	movabs $0xffffc902f5f65000,%rdi
    132f:	c9 ff ff 
    1332:	48 8d 75 c0          	lea    -0x40(%rbp),%rsi
    1336:	48 c7 c0 30 c9 09 9f 	mov    $0xffffffff9f09c930,%rax
    133d:	ff d0                	call   *%rax
    133f:	48 85 c0             	test   %rax,%rax
    1342:	0f 84 4e 09 00 00    	je     1c96 <balancer_ingress+0x1c96>
    1348:	83 00 01             	addl   $0x1,(%rax)
    134b:	48 8d 04 9b          	lea    (%rbx,%rbx,4),%rax
    134f:	48 b9 00 10 f4 f5 02 	movabs $0xffffc902f5f41000,%rcx
    1356:	c9 ff ff 
    1359:	4c 8d 3c 81          	lea    (%rcx,%rax,4),%r15
    135d:	49 81 c7 00 01 00 00 	add    $0x100,%r15
    1364:	48 8b 85 40 ff ff ff 	mov    -0xc0(%rbp),%rax
    136b:	48 83 40 08 01       	addq   $0x1,0x8(%rax)
    1370:	45 89 e6             	mov    %r12d,%r14d
    1373:	e9 84 fa ff ff       	jmp    dfc <balancer_ingress+0xdfc>
    1378:	49 8d 46 0e          	lea    0xe(%r14),%rax
    137c:	4c 39 e0             	cmp    %r12,%rax
    137f:	0f 87 30 03 00 00    	ja     16b5 <balancer_ingress+0x16b5>
    1385:	f6 c1 20             	test   $0x20,%cl
    1388:	0f 85 c3 00 00 00    	jne    1451 <balancer_ingress+0x1451>
    138e:	48 83 43 08 01       	addq   $0x1,0x8(%rbx)
    1393:	8b 85 7c ff ff ff    	mov    -0x84(%rbp),%eax
    1399:	89 45 c0             	mov    %eax,-0x40(%rbp)
    139c:	48 bf 00 c0 06 49 81 	movabs $0xffff88814906c000,%rdi
    13a3:	88 ff ff 
    13a6:	48 8d 75 c0          	lea    -0x40(%rbp),%rsi
    13aa:	48 c7 c0 30 c9 09 9f 	mov    $0xffffffff9f09c930,%rax
    13b1:	ff d0                	call   *%rax
    13b3:	48 85 c0             	test   %rax,%rax
    13b6:	0f 84 fd 02 00 00    	je     16b9 <balancer_ingress+0x16b9>
    13bc:	48 83 00 01          	addq   $0x1,(%rax)
    13c0:	e9 f4 02 00 00       	jmp    16b9 <balancer_ingress+0x16b9>
    13c5:	41 80 7e 05 08       	cmpb   $0x8,0x5(%r14)
    13ca:	48 8b 75 d0          	mov    -0x30(%rbp),%rsi
    13ce:	0f 82 74 f3 ff ff    	jb     748 <balancer_ingress+0x748>
    13d4:	49 83 c6 06          	add    $0x6,%r14
    13d8:	4c 89 f7             	mov    %r14,%rdi
    13db:	48 85 ff             	test   %rdi,%rdi
    13de:	0f 85 31 f8 ff ff    	jne    c15 <balancer_ingress+0xc15>
    13e4:	e9 5f f3 ff ff       	jmp    748 <balancer_ingress+0x748>
    13e9:	0f b6 4f 01          	movzbl 0x1(%rdi),%ecx
    13ed:	48 c1 e1 18          	shl    $0x18,%rcx
    13f1:	0f b6 57 02          	movzbl 0x2(%rdi),%edx
    13f5:	48 c1 e2 10          	shl    $0x10,%rdx
    13f9:	48 09 ca             	or     %rcx,%rdx
    13fc:	0f b6 4f 03          	movzbl 0x3(%rdi),%ecx
    1400:	48 c1 e1 08          	shl    $0x8,%rcx
    1404:	48 09 d1             	or     %rdx,%rcx
    1407:	8a 47 04             	mov    0x4(%rdi),%al
    140a:	b2 03                	mov    $0x3,%dl
    140c:	eb 18                	jmp    1426 <balancer_ingress+0x1426>
    140e:	0f b6 57 01          	movzbl 0x1(%rdi),%edx
    1412:	48 c1 e2 10          	shl    $0x10,%rdx
    1416:	0f b6 4f 02          	movzbl 0x2(%rdi),%ecx
    141a:	48 c1 e1 08          	shl    $0x8,%rcx
    141e:	48 09 d1             	or     %rdx,%rcx
    1421:	8a 47 03             	mov    0x3(%rdi),%al
    1424:	b2 02                	mov    $0x2,%dl
    1426:	0f b6 f8             	movzbl %al,%edi
    1429:	48 09 cf             	or     %rcx,%rdi
    142c:	85 ff                	test   %edi,%edi
    142e:	48 8b 75 d0          	mov    -0x30(%rbp),%rsi
    1432:	48 89 d8             	mov    %rbx,%rax
    1435:	0f 8e 0d f3 ff ff    	jle    748 <balancer_ingress+0x748>
    143b:	80 fa 01             	cmp    $0x1,%dl
    143e:	74 6b                	je     14ab <balancer_ingress+0x14ab>
    1440:	80 fa 03             	cmp    $0x3,%dl
    1443:	74 6d                	je     14b2 <balancer_ingress+0x14b2>
    1445:	80 fa 02             	cmp    $0x2,%dl
    1448:	75 6f                	jne    14b9 <balancer_ingress+0x14b9>
    144a:	b9 40 00 00 00       	mov    $0x40,%ecx
    144f:	eb 6d                	jmp    14be <balancer_ingress+0x14be>
    1451:	41 80 7e 05 08       	cmpb   $0x8,0x5(%r14)
    1456:	0f 82 59 02 00 00    	jb     16b5 <balancer_ingress+0x16b5>
    145c:	49 83 c6 06          	add    $0x6,%r14
    1460:	4c 89 f0             	mov    %r14,%rax
    1463:	48 85 c0             	test   %rax,%rax
    1466:	0f 84 49 02 00 00    	je     16b5 <balancer_ingress+0x16b5>
    146c:	0f b6 08             	movzbl (%rax),%ecx
    146f:	89 ca                	mov    %ecx,%edx
    1471:	c0 ea 06             	shr    $0x6,%dl
    1474:	80 fa 03             	cmp    $0x3,%dl
    1477:	0f 84 e1 00 00 00    	je     155e <balancer_ingress+0x155e>
    147d:	80 fa 02             	cmp    $0x2,%dl
    1480:	0f 84 fd 00 00 00    	je     1583 <balancer_ingress+0x1583>
    1486:	80 fa 01             	cmp    $0x1,%dl
    1489:	0f 85 26 02 00 00    	jne    16b5 <balancer_ingress+0x16b5>
    148f:	83 e1 3f             	and    $0x3f,%ecx
    1492:	48 c1 e1 0a          	shl    $0xa,%rcx
    1496:	0f b6 50 01          	movzbl 0x1(%rax),%edx
    149a:	48 8d 0c 91          	lea    (%rcx,%rdx,4),%rcx
    149e:	8a 40 02             	mov    0x2(%rax),%al
    14a1:	c0 e8 06             	shr    $0x6,%al
    14a4:	b2 01                	mov    $0x1,%dl
    14a6:	e9 f0 00 00 00       	jmp    159b <balancer_ingress+0x159b>
    14ab:	b9 38 00 00 00       	mov    $0x38,%ecx
    14b0:	eb 0c                	jmp    14be <balancer_ingress+0x14be>
    14b2:	b9 48 00 00 00       	mov    $0x48,%ecx
    14b7:	eb 05                	jmp    14be <balancer_ingress+0x14be>
    14b9:	b9 30 00 00 00       	mov    $0x30,%ecx
    14be:	48 83 04 0b 01       	addq   $0x1,(%rbx,%rcx,1)
    14c3:	81 ff fd ff ff 00    	cmp    $0xfffffd,%edi
    14c9:	77 7a                	ja     1545 <balancer_ingress+0x1545>
    14cb:	48 b9 00 f0 f6 f5 02 	movabs $0xffffc902f5f6f000,%rcx
    14d2:	c9 ff ff 
    14d5:	8b 8c b9 00 01 00 00 	mov    0x100(%rcx,%rdi,4),%ecx
    14dc:	48 85 c9             	test   %rcx,%rcx
    14df:	74 64                	je     1545 <balancer_ingress+0x1545>
    14e1:	89 4d a8             	mov    %ecx,-0x58(%rbp)
    14e4:	31 d2                	xor    %edx,%edx
    14e6:	81 f9 00 10 00 00    	cmp    $0x1000,%ecx
    14ec:	48 8d 04 89          	lea    (%rcx,%rcx,4),%rax
    14f0:	48 b9 00 10 f4 f5 02 	movabs $0xffffc902f5f41000,%rcx
    14f7:	c9 ff ff 
    14fa:	48 8d 84 81 00 01 00 	lea    0x100(%rcx,%rax,4),%rax
    1501:	00 
    1502:	48 0f 42 d0          	cmovb  %rax,%rdx
    1506:	48 85 d2             	test   %rdx,%rdx
    1509:	0f 84 79 08 00 00    	je     1d88 <balancer_ingress+0x1d88>
    150f:	49 89 d7             	mov    %rdx,%r15
    1512:	48 8d 75 80          	lea    -0x80(%rbp),%rsi
    1516:	49 c7 c6 30 c9 09 9f 	mov    $0xffffffff9f09c930,%r14
    151d:	48 8b bd 70 ff ff ff 	mov    -0x90(%rbp),%rdi
    1524:	41 ff d6             	call   *%r14
    1527:	48 85 c0             	test   %rax,%rax
    152a:	0f 84 8f 00 00 00    	je     15bf <balancer_ingress+0x15bf>
    1530:	8b 4d a8             	mov    -0x58(%rbp),%ecx
    1533:	39 08                	cmp    %ecx,(%rax)
    1535:	0f 85 57 08 00 00    	jne    1d92 <balancer_ingress+0x1d92>
    153b:	48 83 43 50 01       	addq   $0x1,0x50(%rbx)
    1540:	e9 c7 08 00 00       	jmp    1e0c <balancer_ingress+0x1e0c>
    1545:	48 83 43 10 01       	addq   $0x1,0x10(%rbx)
    154a:	48 63 c7             	movslq %edi,%rax
    154d:	48 89 43 18          	mov    %rax,0x18(%rbx)
    1551:	48 83 03 01          	addq   $0x1,(%rbx)
    1555:	48 8b 75 d0          	mov    -0x30(%rbp),%rsi
    1559:	e9 27 f6 ff ff       	jmp    b85 <balancer_ingress+0xb85>
    155e:	0f b6 48 01          	movzbl 0x1(%rax),%ecx
    1562:	48 c1 e1 18          	shl    $0x18,%rcx
    1566:	0f b6 50 02          	movzbl 0x2(%rax),%edx
    156a:	48 c1 e2 10          	shl    $0x10,%rdx
    156e:	48 09 ca             	or     %rcx,%rdx
    1571:	0f b6 48 03          	movzbl 0x3(%rax),%ecx
    1575:	48 c1 e1 08          	shl    $0x8,%rcx
    1579:	48 09 d1             	or     %rdx,%rcx
    157c:	8a 40 04             	mov    0x4(%rax),%al
    157f:	b2 03                	mov    $0x3,%dl
    1581:	eb 18                	jmp    159b <balancer_ingress+0x159b>
    1583:	0f b6 50 01          	movzbl 0x1(%rax),%edx
    1587:	48 c1 e2 10          	shl    $0x10,%rdx
    158b:	0f b6 48 02          	movzbl 0x2(%rax),%ecx
    158f:	48 c1 e1 08          	shl    $0x8,%rcx
    1593:	48 09 d1             	or     %rdx,%rcx
    1596:	8a 40 03             	mov    0x3(%rax),%al
    1599:	b2 02                	mov    $0x2,%dl
    159b:	0f b6 c0             	movzbl %al,%eax
    159e:	48 09 c8             	or     %rcx,%rax
    15a1:	85 c0                	test   %eax,%eax
    15a3:	0f 8e 0c 01 00 00    	jle    16b5 <balancer_ingress+0x16b5>
    15a9:	80 fa 01             	cmp    $0x1,%dl
    15ac:	74 62                	je     1610 <balancer_ingress+0x1610>
    15ae:	80 fa 03             	cmp    $0x3,%dl
    15b1:	74 64                	je     1617 <balancer_ingress+0x1617>
    15b3:	80 fa 02             	cmp    $0x2,%dl
    15b6:	75 66                	jne    161e <balancer_ingress+0x161e>
    15b8:	b9 40 00 00 00       	mov    $0x40,%ecx
    15bd:	eb 64                	jmp    1623 <balancer_ingress+0x1623>
    15bf:	c7 45 c0 02 02 00 00 	movl   $0x202,-0x40(%rbp)
    15c6:	48 bf 00 00 fb d3 81 	movabs $0xffff8881d3fb0000,%rdi
    15cd:	88 ff ff 
    15d0:	48 8d 75 c0          	lea    -0x40(%rbp),%rsi
    15d4:	41 ff d6             	call   *%r14
    15d7:	48 85 c0             	test   %rax,%rax
    15da:	0f 84 27 08 00 00    	je     1e07 <balancer_ingress+0x1e07>
    15e0:	49 89 c6             	mov    %rax,%r14
    15e3:	48 c7 c0 30 d6 09 9f 	mov    $0xffffffff9f09d630,%rax
    15ea:	ff d0                	call   *%rax
    15ec:	48 89 c1             	mov    %rax,%rcx
    15ef:	49 2b 4e 08          	sub    0x8(%r14),%rcx
    15f3:	48 81 f9 01 ca 9a 3b 	cmp    $0x3b9aca01,%rcx
    15fa:	0f 82 c5 07 00 00    	jb     1dc5 <balancer_ingress+0x1dc5>
    1600:	49 c7 06 01 00 00 00 	movq   $0x1,(%r14)
    1607:	49 89 46 08          	mov    %rax,0x8(%r14)
    160b:	e9 c7 07 00 00       	jmp    1dd7 <balancer_ingress+0x1dd7>
    1610:	b9 38 00 00 00       	mov    $0x38,%ecx
    1615:	eb 0c                	jmp    1623 <balancer_ingress+0x1623>
    1617:	b9 48 00 00 00       	mov    $0x48,%ecx
    161c:	eb 05                	jmp    1623 <balancer_ingress+0x1623>
    161e:	b9 30 00 00 00       	mov    $0x30,%ecx
    1623:	48 83 04 0b 01       	addq   $0x1,(%rbx,%rcx,1)
    1628:	3d fd ff ff 00       	cmp    $0xfffffd,%eax
    162d:	77 7b                	ja     16aa <balancer_ingress+0x16aa>
    162f:	48 b9 00 f0 f6 f5 02 	movabs $0xffffc902f5f6f000,%rcx
    1636:	c9 ff ff 
    1639:	8b 8c 81 00 01 00 00 	mov    0x100(%rcx,%rax,4),%ecx
    1640:	48 85 c9             	test   %rcx,%rcx
    1643:	74 65                	je     16aa <balancer_ingress+0x16aa>
    1645:	89 4d a8             	mov    %ecx,-0x58(%rbp)
    1648:	31 d2                	xor    %edx,%edx
    164a:	81 f9 00 10 00 00    	cmp    $0x1000,%ecx
    1650:	48 8d 04 89          	lea    (%rcx,%rcx,4),%rax
    1654:	48 b9 00 10 f4 f5 02 	movabs $0xffffc902f5f41000,%rcx
    165b:	c9 ff ff 
    165e:	48 8d 84 81 00 01 00 	lea    0x100(%rcx,%rax,4),%rax
    1665:	00 
    1666:	48 0f 42 d0          	cmovb  %rax,%rdx
    166a:	48 89 55 d0          	mov    %rdx,-0x30(%rbp)
    166e:	48 85 d2             	test   %rdx,%rdx
    1671:	0f 84 11 07 00 00    	je     1d88 <balancer_ingress+0x1d88>
    1677:	48 8d 75 80          	lea    -0x80(%rbp),%rsi
    167b:	49 c7 c6 30 c9 09 9f 	mov    $0xffffffff9f09c930,%r14
    1682:	48 8b bd 70 ff ff ff 	mov    -0x90(%rbp),%rdi
    1689:	41 ff d6             	call   *%r14
    168c:	48 85 c0             	test   %rax,%rax
    168f:	0f 84 86 07 00 00    	je     1e1b <balancer_ingress+0x1e1b>
    1695:	8b 4d a8             	mov    -0x58(%rbp),%ecx
    1698:	39 08                	cmp    %ecx,(%rax)
    169a:	0f 85 c5 07 00 00    	jne    1e65 <balancer_ingress+0x1e65>
    16a0:	48 83 43 50 01       	addq   $0x1,0x50(%rbx)
    16a5:	e9 35 08 00 00       	jmp    1edf <balancer_ingress+0x1edf>
    16aa:	48 83 43 10 01       	addq   $0x1,0x10(%rbx)
    16af:	48 98                	cltq
    16b1:	48 89 43 18          	mov    %rax,0x18(%rbx)
    16b5:	48 83 03 01          	addq   $0x1,(%rbx)
    16b9:	48 8b 45 d0          	mov    -0x30(%rbp),%rax
    16bd:	0f b7 4d a0          	movzwl -0x60(%rbp),%ecx
    16c1:	89 8d 7c ff ff ff    	mov    %ecx,-0x84(%rbp)
    16c7:	f6 45 ac 02          	testb  $0x2,-0x54(%rbp)
    16cb:	75 4a                	jne    1717 <balancer_ingress+0x1717>
    16cd:	f6 00 02             	testb  $0x2,(%rax)
    16d0:	75 45                	jne    1717 <balancer_ingress+0x1717>
    16d2:	48 8d 75 80          	lea    -0x80(%rbp),%rsi
    16d6:	48 c7 c0 30 c9 09 9f 	mov    $0xffffffff9f09c930,%rax
    16dd:	48 8b bd 70 ff ff ff 	mov    -0x90(%rbp),%rdi
    16e4:	ff d0                	call   *%rax
    16e6:	48 85 c0             	test   %rax,%rax
    16e9:	74 28                	je     1713 <balancer_ingress+0x1713>
    16eb:	48 89 c3             	mov    %rax,%rbx
    16ee:	80 7d a4 11          	cmpb   $0x11,-0x5c(%rbp)
    16f2:	75 2b                	jne    171f <balancer_ingress+0x171f>
    16f4:	48 c7 c0 30 d6 09 9f 	mov    $0xffffffff9f09d630,%rax
    16fb:	ff d0                	call   *%rax
    16fd:	48 89 c1             	mov    %rax,%rcx
    1700:	48 2b 4b 08          	sub    0x8(%rbx),%rcx
    1704:	48 ba 00 ac 23 fc 06 	movabs $0x6fc23ac00,%rdx
    170b:	00 00 00 
    170e:	48 39 d1             	cmp    %rdx,%rcx
    1711:	76 08                	jbe    171b <balancer_ingress+0x171b>
    1713:	31 db                	xor    %ebx,%ebx
    1715:	eb 2f                	jmp    1746 <balancer_ingress+0x1746>
    1717:	31 db                	xor    %ebx,%ebx
    1719:	eb 2f                	jmp    174a <balancer_ingress+0x174a>
    171b:	48 89 43 08          	mov    %rax,0x8(%rbx)
    171f:	8b 03                	mov    (%rbx),%eax
    1721:	31 db                	xor    %ebx,%ebx
    1723:	48 3d 00 10 00 00    	cmp    $0x1000,%rax
    1729:	89 45 a8             	mov    %eax,-0x58(%rbp)
    172c:	48 8d 04 80          	lea    (%rax,%rax,4),%rax
    1730:	48 b9 00 10 f4 f5 02 	movabs $0xffffc902f5f41000,%rcx
    1737:	c9 ff ff 
    173a:	48 8d 84 81 00 01 00 	lea    0x100(%rcx,%rax,4),%rax
    1741:	00 
    1742:	48 0f 42 d8          	cmovb  %rax,%rbx
    1746:	48 8b 45 d0          	mov    -0x30(%rbp),%rax
    174a:	80 7d a4 11          	cmpb   $0x11,-0x5c(%rbp)
    174e:	0f 85 cb 00 00 00    	jne    181f <balancer_ingress+0x181f>
    1754:	f6 40 01 02          	testb  $0x2,0x1(%rax)
    1758:	0f 84 c1 00 00 00    	je     181f <balancer_ingress+0x181f>
    175e:	c7 45 c0 02 02 00 00 	movl   $0x202,-0x40(%rbp)
    1765:	48 bf 00 00 fb d3 81 	movabs $0xffff8881d3fb0000,%rdi
    176c:	88 ff ff 
    176f:	48 8d 75 c0          	lea    -0x40(%rbp),%rsi
    1773:	48 c7 c0 30 c9 09 9f 	mov    $0xffffffff9f09c930,%rax
    177a:	ff d0                	call   *%rax
    177c:	48 85 c0             	test   %rax,%rax
    177f:	0f 84 9a 00 00 00    	je     181f <balancer_ingress+0x181f>
    1785:	49 89 c6             	mov    %rax,%r14
    1788:	48 c7 c0 30 d6 09 9f 	mov    $0xffffffff9f09d630,%rax
    178f:	ff d0                	call   *%rax
    1791:	48 89 c1             	mov    %rax,%rcx
    1794:	49 2b 4e 08          	sub    0x8(%r14),%rcx
    1798:	48 81 f9 01 ca 9a 3b 	cmp    $0x3b9aca01,%rcx
    179f:	72 0d                	jb     17ae <balancer_ingress+0x17ae>
    17a1:	49 c7 06 01 00 00 00 	movq   $0x1,(%r14)
    17a8:	49 89 46 08          	mov    %rax,0x8(%r14)
    17ac:	eb 12                	jmp    17c0 <balancer_ingress+0x17c0>
    17ae:	49 8b 06             	mov    (%r14),%rax
    17b1:	48 83 c0 01          	add    $0x1,%rax
    17b5:	49 89 06             	mov    %rax,(%r14)
    17b8:	48 3d 49 e8 01 00    	cmp    $0x1e849,%rax
    17be:	73 5f                	jae    181f <balancer_ingress+0x181f>
    17c0:	48 bf 00 e0 63 50 81 	movabs $0xffff88815063e000,%rdi
    17c7:	88 ff ff 
    17ca:	48 8d b5 58 ff ff ff 	lea    -0xa8(%rbp),%rsi
    17d1:	49 c7 c6 30 c9 09 9f 	mov    $0xffffffff9f09c930,%r14
    17d8:	41 ff d6             	call   *%r14
    17db:	48 85 c0             	test   %rax,%rax
    17de:	74 3f                	je     181f <balancer_ingress+0x181f>
    17e0:	48 8d 75 a8          	lea    -0x58(%rbp),%rsi
    17e4:	48 89 c7             	mov    %rax,%rdi
    17e7:	41 ff d6             	call   *%r14
    17ea:	48 85 c0             	test   %rax,%rax
    17ed:	74 30                	je     181f <balancer_ingress+0x181f>
    17ef:	c7 45 c0 0f 02 00 00 	movl   $0x20f,-0x40(%rbp)
    17f6:	48 bf 00 00 fb d3 81 	movabs $0xffff8881d3fb0000,%rdi
    17fd:	88 ff ff 
    1800:	48 8d 75 c0          	lea    -0x40(%rbp),%rsi
    1804:	48 c7 c0 30 c9 09 9f 	mov    $0xffffffff9f09c930,%rax
    180b:	ff d0                	call   *%rax
    180d:	48 85 c0             	test   %rax,%rax
    1810:	0f 84 e1 01 00 00    	je     19f7 <balancer_ingress+0x19f7>
    1816:	48 83 00 01          	addq   $0x1,(%rax)
    181a:	e9 d8 01 00 00       	jmp    19f7 <balancer_ingress+0x19f7>
    181f:	48 85 db             	test   %rbx,%rbx
    1822:	0f 84 cf 01 00 00    	je     19f7 <balancer_ingress+0x19f7>
    1828:	48 89 5d d0          	mov    %rbx,-0x30(%rbp)
    182c:	48 bf 00 00 fb d3 81 	movabs $0xffff8881d3fb0000,%rdi
    1833:	88 ff ff 
    1836:	48 8d b5 54 ff ff ff 	lea    -0xac(%rbp),%rsi
    183d:	49 c7 c6 30 c9 09 9f 	mov    $0xffffffff9f09c930,%r14
    1844:	41 ff d6             	call   *%r14
    1847:	bb 01 00 00 00       	mov    $0x1,%ebx
    184c:	48 85 c0             	test   %rax,%rax
    184f:	0f 84 46 04 00 00    	je     1c9b <balancer_ingress+0x1c9b>
    1855:	0f b7 4d b4          	movzwl -0x4c(%rbp),%ecx
    1859:	41 89 cc             	mov    %ecx,%r12d
    185c:	66 41 c1 c4 08       	rol    $0x8,%r12w
    1861:	48 83 00 01          	addq   $0x1,(%rax)
    1865:	45 0f b7 fc          	movzwl %r12w,%r15d
    1869:	4c 01 78 08          	add    %r15,0x8(%rax)
    186d:	48 8d 75 a8          	lea    -0x58(%rbp),%rsi
    1871:	48 bf 00 b0 f5 f5 02 	movabs $0xffffc902f5f5b000,%rdi
    1878:	c9 ff ff 
    187b:	41 ff d6             	call   *%r14
    187e:	48 85 c0             	test   %rax,%rax
    1881:	0f 84 14 04 00 00    	je     1c9b <balancer_ingress+0x1c9b>
    1887:	48 83 00 01          	addq   $0x1,(%rax)
    188b:	4c 01 78 08          	add    %r15,0x8(%rax)
    188f:	8b 85 7c ff ff ff    	mov    -0x84(%rbp),%eax
    1895:	66 89 45 a0          	mov    %ax,-0x60(%rbp)
    1899:	48 8b 45 d0          	mov    -0x30(%rbp),%rax
    189d:	f6 40 10 01          	testb  $0x1,0x10(%rax)
    18a1:	0f 85 f7 01 00 00    	jne    1a9e <balancer_ingress+0x1a9e>
    18a7:	44 0f b7 75 82       	movzwl -0x7e(%rbp),%r14d
    18ac:	48 c7 c0 20 5c 23 a1 	mov    $0xffffffffa1235c20,%rax
    18b3:	4c 89 ef             	mov    %r13,%rdi
    18b6:	be ec ff ff ff       	mov    $0xffffffec,%esi
    18bb:	ff d0                	call   *%rax
    18bd:	85 c0                	test   %eax,%eax
    18bf:	0f 85 d6 03 00 00    	jne    1c9b <balancer_ingress+0x1c9b>
    18c5:	49 8b 45 00          	mov    0x0(%r13),%rax
    18c9:	49 8b 4d 08          	mov    0x8(%r13),%rcx
    18cd:	48 8d 50 0e          	lea    0xe(%rax),%rdx
    18d1:	48 39 ca             	cmp    %rcx,%rdx
    18d4:	0f 87 c1 03 00 00    	ja     1c9b <balancer_ingress+0x1c9b>
    18da:	48 8d 50 22          	lea    0x22(%rax),%rdx
    18de:	48 39 ca             	cmp    %rcx,%rdx
    18e1:	0f 87 b4 03 00 00    	ja     1c9b <balancer_ingress+0x1c9b>
    18e7:	8b 8d 7c ff ff ff    	mov    -0x84(%rbp),%ecx
    18ed:	66 c1 c1 08          	rol    $0x8,%cx
    18f1:	41 31 ce             	xor    %ecx,%r14d
    18f4:	41 c1 e6 10          	shl    $0x10,%r14d
    18f8:	41 8d 96 ac 10 00 00 	lea    0x10ac(%r14),%edx
    18ff:	48 b9 00 cc c7 06 81 	movabs $0xffff888106c7cc00,%rcx
    1906:	88 ff ff 
    1909:	0f b7 b1 04 01 00 00 	movzwl 0x104(%rcx),%esi
    1910:	66 89 70 04          	mov    %si,0x4(%rax)
    1914:	8b 89 00 01 00 00    	mov    0x100(%rcx),%ecx
    191a:	89 08                	mov    %ecx,(%rax)
    191c:	8b 48 14             	mov    0x14(%rax),%ecx
    191f:	89 48 06             	mov    %ecx,0x6(%rax)
    1922:	0f b7 48 18          	movzwl 0x18(%rax),%ecx
    1926:	66 89 48 0a          	mov    %cx,0xa(%rax)
    192a:	66 c7 40 0c 08 00    	movw   $0x8,0xc(%rax)
    1930:	8a 5d ad             	mov    -0x53(%rbp),%bl
    1933:	48 8b 4d d0          	mov    -0x30(%rbp),%rcx
    1937:	8b 09                	mov    (%rcx),%ecx
    1939:	c6 40 0e 45          	movb   $0x45,0xe(%rax)
    193d:	88 58 0f             	mov    %bl,0xf(%rax)
    1940:	41 83 c4 14          	add    $0x14,%r12d
    1944:	66 41 c1 c4 08       	rol    $0x8,%r12w
    1949:	66 44 89 60 10       	mov    %r12w,0x10(%rax)
    194e:	c7 40 12 00 00 00 00 	movl   $0x0,0x12(%rax)
    1955:	89 48 1e             	mov    %ecx,0x1e(%rax)
    1958:	89 50 1a             	mov    %edx,0x1a(%rax)
    195b:	66 c7 40 16 40 04    	movw   $0x440,0x16(%rax)
    1961:	0f b7 50 0e          	movzwl 0xe(%rax),%edx
    1965:	41 0f b7 f4          	movzwl %r12w,%esi
    1969:	0f b7 78 16          	movzwl 0x16(%rax),%edi
    196d:	41 c1 ee 10          	shr    $0x10,%r14d
    1971:	49 01 f6             	add    %rsi,%r14
    1974:	0f b7 f1             	movzwl %cx,%esi
    1977:	4c 01 f6             	add    %r14,%rsi
    197a:	48 c1 e9 10          	shr    $0x10,%rcx
    197e:	48 01 f1             	add    %rsi,%rcx
    1981:	48 01 d1             	add    %rdx,%rcx
    1984:	48 01 f9             	add    %rdi,%rcx
    1987:	48 81 c1 ac 10 00 00 	add    $0x10ac,%rcx
    198e:	48 89 ca             	mov    %rcx,%rdx
    1991:	48 c1 ea 10          	shr    $0x10,%rdx
    1995:	0f b7 f1             	movzwl %cx,%esi
    1998:	48 01 d6             	add    %rdx,%rsi
    199b:	48 81 f9 00 00 01 00 	cmp    $0x10000,%rcx
    19a2:	48 0f 42 f1          	cmovb  %rcx,%rsi
    19a6:	48 89 f1             	mov    %rsi,%rcx
    19a9:	48 c1 e9 10          	shr    $0x10,%rcx
    19ad:	0f b7 d6             	movzwl %si,%edx
    19b0:	48 01 ca             	add    %rcx,%rdx
    19b3:	48 81 fe 00 00 01 00 	cmp    $0x10000,%rsi
    19ba:	48 0f 42 d6          	cmovb  %rsi,%rdx
    19be:	48 89 d1             	mov    %rdx,%rcx
    19c1:	48 c1 e9 10          	shr    $0x10,%rcx
    19c5:	0f b7 f2             	movzwl %dx,%esi
    19c8:	48 01 ce             	add    %rcx,%rsi
    19cb:	48 81 fa 00 00 01 00 	cmp    $0x10000,%rdx
    19d2:	48 0f 42 f2          	cmovb  %rdx,%rsi
    19d6:	89 f1                	mov    %esi,%ecx
    19d8:	c1 e9 10             	shr    $0x10,%ecx
    19db:	48 81 fe 00 00 01 00 	cmp    $0x10000,%rsi
    19e2:	ba 00 00 01 00       	mov    $0x10000,%edx
    19e7:	0f 43 d1             	cmovae %ecx,%edx
    19ea:	01 f2                	add    %esi,%edx
    19ec:	f7 d2                	not    %edx
    19ee:	66 89 50 18          	mov    %dx,0x18(%rax)
    19f2:	e9 0d ea ff ff       	jmp    404 <balancer_ingress+0x404>
    19f7:	80 7d a4 06          	cmpb   $0x6,-0x5c(%rbp)
    19fb:	75 37                	jne    1a34 <balancer_ingress+0x1a34>
    19fd:	c7 45 c0 01 02 00 00 	movl   $0x201,-0x40(%rbp)
    1a04:	48 bf 00 00 fb d3 81 	movabs $0xffff8881d3fb0000,%rdi
    1a0b:	88 ff ff 
    1a0e:	48 8d 75 c0          	lea    -0x40(%rbp),%rsi
    1a12:	48 c7 c0 30 c9 09 9f 	mov    $0xffffffff9f09c930,%rax
    1a19:	ff d0                	call   *%rax
    1a1b:	48 85 c0             	test   %rax,%rax
    1a1e:	0f 84 72 02 00 00    	je     1c96 <balancer_ingress+0x1c96>
    1a24:	8b 4d ac             	mov    -0x54(%rbp),%ecx
    1a27:	c1 e1 02             	shl    $0x2,%ecx
    1a2a:	f7 d1                	not    %ecx
    1a2c:	83 e1 08             	and    $0x8,%ecx
    1a2f:	48 83 04 08 01       	addq   $0x1,(%rax,%rcx,1)
    1a34:	48 c7 45 c8 00 00 00 	movq   $0x0,-0x38(%rbp)
    1a3b:	00 
    1a3c:	48 c7 45 c0 00 00 00 	movq   $0x0,-0x40(%rbp)
    1a43:	00 
    1a44:	c7 45 b8 02 02 00 00 	movl   $0x202,-0x48(%rbp)
    1a4b:	48 bf 00 00 fb d3 81 	movabs $0xffff8881d3fb0000,%rdi
    1a52:	88 ff ff 
    1a55:	48 8d 75 b8          	lea    -0x48(%rbp),%rsi
    1a59:	48 c7 c0 30 c9 09 9f 	mov    $0xffffffff9f09c930,%rax
    1a60:	ff d0                	call   *%rax
    1a62:	41 b7 01             	mov    $0x1,%r15b
    1a65:	48 85 c0             	test   %rax,%rax
    1a68:	0f 84 f5 00 00 00    	je     1b63 <balancer_ingress+0x1b63>
    1a6e:	48 89 c3             	mov    %rax,%rbx
    1a71:	48 c7 c0 30 d6 09 9f 	mov    $0xffffffff9f09d630,%rax
    1a78:	ff d0                	call   *%rax
    1a7a:	48 89 c1             	mov    %rax,%rcx
    1a7d:	48 2b 4b 08          	sub    0x8(%rbx),%rcx
    1a81:	48 81 f9 01 ca 9a 3b 	cmp    $0x3b9aca01,%rcx
    1a88:	0f 82 d9 00 00 00    	jb     1b67 <balancer_ingress+0x1b67>
    1a8e:	48 c7 03 01 00 00 00 	movq   $0x1,(%rbx)
    1a95:	48 89 43 08          	mov    %rax,0x8(%rbx)
    1a99:	e9 dc 00 00 00       	jmp    1b7a <balancer_ingress+0x1b7a>
    1a9e:	48 c7 c0 20 5c 23 a1 	mov    $0xffffffffa1235c20,%rax
    1aa5:	4c 89 ef             	mov    %r13,%rdi
    1aa8:	be d8 ff ff ff       	mov    $0xffffffd8,%esi
    1aad:	ff d0                	call   *%rax
    1aaf:	85 c0                	test   %eax,%eax
    1ab1:	0f 85 e4 01 00 00    	jne    1c9b <balancer_ingress+0x1c9b>
    1ab7:	49 8b 45 00          	mov    0x0(%r13),%rax
    1abb:	49 8b 4d 08          	mov    0x8(%r13),%rcx
    1abf:	48 8d 50 0e          	lea    0xe(%rax),%rdx
    1ac3:	48 39 ca             	cmp    %rcx,%rdx
    1ac6:	0f 87 cf 01 00 00    	ja     1c9b <balancer_ingress+0x1c9b>
    1acc:	48 8d 50 36          	lea    0x36(%rax),%rdx
    1ad0:	48 39 ca             	cmp    %rcx,%rdx
    1ad3:	0f 87 c2 01 00 00    	ja     1c9b <balancer_ingress+0x1c9b>
    1ad9:	48 b9 00 cc c7 06 81 	movabs $0xffff888106c7cc00,%rcx
    1ae0:	88 ff ff 
    1ae3:	0f b7 91 04 01 00 00 	movzwl 0x104(%rcx),%edx
    1aea:	66 89 50 04          	mov    %dx,0x4(%rax)
    1aee:	8b 89 00 01 00 00    	mov    0x100(%rcx),%ecx
    1af4:	89 08                	mov    %ecx,(%rax)
    1af6:	8b 48 28             	mov    0x28(%rax),%ecx
    1af9:	89 48 06             	mov    %ecx,0x6(%rax)
    1afc:	0f b7 48 2c          	movzwl 0x2c(%rax),%ecx
    1b00:	66 89 48 0a          	mov    %cx,0xa(%rax)
    1b04:	66 c7 40 0c 86 dd    	movw   $0xdd86,0xc(%rax)
    1b0a:	0f b7 4d a0          	movzwl -0x60(%rbp),%ecx
    1b0e:	33 4d 80             	xor    -0x80(%rbp),%ecx
    1b11:	8a 5d ad             	mov    -0x53(%rbp),%bl
    1b14:	66 c7 40 10 00 00    	movw   $0x0,0x10(%rax)
    1b1a:	89 da                	mov    %ebx,%edx
    1b1c:	c0 ea 04             	shr    $0x4,%dl
    1b1f:	80 ca 60             	or     $0x60,%dl
    1b22:	88 50 0e             	mov    %dl,0xe(%rax)
    1b25:	c0 e3 04             	shl    $0x4,%bl
    1b28:	88 58 0f             	mov    %bl,0xf(%rax)
    1b2b:	66 c7 40 14 04 40    	movw   $0x4004,0x14(%rax)
    1b31:	0f b7 55 b4          	movzwl -0x4c(%rbp),%edx
    1b35:	66 89 50 12          	mov    %dx,0x12(%rax)
    1b39:	48 c7 40 16 01 00 00 	movq   $0x1,0x16(%rax)
    1b40:	00 
    1b41:	c7 40 1e 00 00 00 00 	movl   $0x0,0x1e(%rax)
    1b48:	89 48 22             	mov    %ecx,0x22(%rax)
    1b4b:	48 8b 55 d0          	mov    -0x30(%rbp),%rdx
    1b4f:	48 8b 0a             	mov    (%rdx),%rcx
    1b52:	48 8b 52 08          	mov    0x8(%rdx),%rdx
    1b56:	48 89 48 26          	mov    %rcx,0x26(%rax)
    1b5a:	48 89 50 2e          	mov    %rdx,0x2e(%rax)
    1b5e:	e9 a1 e8 ff ff       	jmp    404 <balancer_ingress+0x404>
    1b63:	31 c0                	xor    %eax,%eax
    1b65:	eb 16                	jmp    1b7d <balancer_ingress+0x1b7d>
    1b67:	48 8b 0b             	mov    (%rbx),%rcx
    1b6a:	48 83 c1 01          	add    $0x1,%rcx
    1b6e:	48 89 0b             	mov    %rcx,(%rbx)
    1b71:	48 81 f9 48 e8 01 00 	cmp    $0x1e848,%rcx
    1b78:	77 03                	ja     1b7d <balancer_ingress+0x1b7d>
    1b7a:	45 31 ff             	xor    %r15d,%r15d
    1b7d:	48 8b 4d d0          	mov    -0x30(%rbp),%rcx
    1b81:	f6 01 08             	testb  $0x8,(%rcx)
    1b84:	75 05                	jne    1b8b <balancer_ingress+0x1b8b>
    1b86:	8b 55 80             	mov    -0x80(%rbp),%edx
    1b89:	eb 1a                	jmp    1ba5 <balancer_ingress+0x1ba5>
    1b8b:	0f b7 4d a2          	movzwl -0x5e(%rbp),%ecx
    1b8f:	66 89 4d a0          	mov    %cx,-0x60(%rbp)
    1b93:	48 c7 45 80 00 00 00 	movq   $0x0,-0x80(%rbp)
    1b9a:	00 
    1b9b:	48 c7 45 88 00 00 00 	movq   $0x0,-0x78(%rbp)
    1ba2:	00 
    1ba3:	31 d2                	xor    %edx,%edx
    1ba5:	be f7 c0 ad e0       	mov    $0xe0adc0f7,%esi
    1baa:	03 75 a0             	add    -0x60(%rbp),%esi
    1bad:	81 c2 f7 c0 ad e0    	add    $0xe0adc0f7,%edx
    1bb3:	89 f1                	mov    %esi,%ecx
    1bb5:	81 f1 f7 c0 ad e0    	xor    $0xe0adc0f7,%ecx
    1bbb:	89 f7                	mov    %esi,%edi
    1bbd:	c1 c7 0e             	rol    $0xe,%edi
    1bc0:	29 f9                	sub    %edi,%ecx
    1bc2:	31 ca                	xor    %ecx,%edx
    1bc4:	89 cf                	mov    %ecx,%edi
    1bc6:	c1 c7 0b             	rol    $0xb,%edi
    1bc9:	29 fa                	sub    %edi,%edx
    1bcb:	31 d6                	xor    %edx,%esi
    1bcd:	89 d7                	mov    %edx,%edi
    1bcf:	c1 c7 19             	rol    $0x19,%edi
    1bd2:	29 fe                	sub    %edi,%esi
    1bd4:	31 f1                	xor    %esi,%ecx
    1bd6:	89 f7                	mov    %esi,%edi
    1bd8:	c1 c7 10             	rol    $0x10,%edi
    1bdb:	29 f9                	sub    %edi,%ecx
    1bdd:	31 ca                	xor    %ecx,%edx
    1bdf:	89 cf                	mov    %ecx,%edi
    1be1:	c1 c7 04             	rol    $0x4,%edi
    1be4:	29 fa                	sub    %edi,%edx
    1be6:	31 d6                	xor    %edx,%esi
    1be8:	c1 c2 0e             	rol    $0xe,%edx
    1beb:	29 d6                	sub    %edx,%esi
    1bed:	31 f1                	xor    %esi,%ecx
    1bef:	c1 c6 18             	rol    $0x18,%esi
    1bf2:	29 f1                	sub    %esi,%ecx
    1bf4:	ba 01 00 ff ff       	mov    $0xffff0001,%edx
    1bf9:	48 0f af d1          	imul   %rcx,%rdx
    1bfd:	48 c1 ea 30          	shr    $0x30,%rdx
    1c01:	89 d6                	mov    %edx,%esi
    1c03:	c1 e6 10             	shl    $0x10,%esi
    1c06:	09 d6                	or     %edx,%esi
    1c08:	29 f1                	sub    %esi,%ecx
    1c0a:	48 8b 55 d0          	mov    -0x30(%rbp),%rdx
    1c0e:	8b 72 04             	mov    0x4(%rdx),%esi
    1c11:	89 f2                	mov    %esi,%edx
    1c13:	c1 e2 10             	shl    $0x10,%edx
    1c16:	01 f2                	add    %esi,%edx
    1c18:	01 ca                	add    %ecx,%edx
    1c1a:	81 fa ff 01 00 02    	cmp    $0x20001ff,%edx
    1c20:	77 74                	ja     1c96 <balancer_ingress+0x1c96>
    1c22:	89 d1                	mov    %edx,%ecx
    1c24:	48 ba 00 c0 eb e5 02 	movabs $0xffffc902e5ebc000,%rdx
    1c2b:	c9 ff ff 
    1c2e:	8b 9c 8a 00 01 00 00 	mov    0x100(%rdx,%rcx,4),%ebx
    1c35:	48 85 db             	test   %rbx,%rbx
    1c38:	74 34                	je     1c6e <balancer_ingress+0x1c6e>
    1c3a:	89 5d a8             	mov    %ebx,-0x58(%rbp)
    1c3d:	81 fb 00 10 00 00    	cmp    $0x1000,%ebx
    1c43:	72 6a                	jb     1caf <balancer_ingress+0x1caf>
    1c45:	c7 45 b8 09 02 00 00 	movl   $0x209,-0x48(%rbp)
    1c4c:	48 bf 00 00 fb d3 81 	movabs $0xffff8881d3fb0000,%rdi
    1c53:	88 ff ff 
    1c56:	48 8d 75 b8          	lea    -0x48(%rbp),%rsi
    1c5a:	48 c7 c0 30 c9 09 9f 	mov    $0xffffffff9f09c930,%rax
    1c61:	ff d0                	call   *%rax
    1c63:	48 85 c0             	test   %rax,%rax
    1c66:	74 2e                	je     1c96 <balancer_ingress+0x1c96>
    1c68:	48 83 00 01          	addq   $0x1,(%rax)
    1c6c:	eb 28                	jmp    1c96 <balancer_ingress+0x1c96>
    1c6e:	c7 45 b8 09 02 00 00 	movl   $0x209,-0x48(%rbp)
    1c75:	48 bf 00 00 fb d3 81 	movabs $0xffff8881d3fb0000,%rdi
    1c7c:	88 ff ff 
    1c7f:	48 8d 75 b8          	lea    -0x48(%rbp),%rsi
    1c83:	48 c7 c0 30 c9 09 9f 	mov    $0xffffffff9f09c930,%rax
    1c8a:	ff d0                	call   *%rax
    1c8c:	48 85 c0             	test   %rax,%rax
    1c8f:	74 05                	je     1c96 <balancer_ingress+0x1c96>
    1c91:	48 83 40 08 01       	addq   $0x1,0x8(%rax)
    1c96:	bb 01 00 00 00       	mov    $0x1,%ebx
    1c9b:	89 d8                	mov    %ebx,%eax
    1c9d:	48 81 c4 98 00 00 00 	add    $0x98,%rsp
    1ca4:	5b                   	pop    %rbx
    1ca5:	41 5c                	pop    %r12
    1ca7:	41 5d                	pop    %r13
    1ca9:	41 5e                	pop    %r14
    1cab:	41 5f                	pop    %r15
    1cad:	5d                   	pop    %rbp
    1cae:	c3                   	ret
    1caf:	48 83 bd 70 ff ff ff 	cmpq   $0x0,-0x90(%rbp)
    1cb6:	00 
    1cb7:	74 10                	je     1cc9 <balancer_ingress+0x1cc9>
    1cb9:	48 8b 4d d0          	mov    -0x30(%rbp),%rcx
    1cbd:	8a 09                	mov    (%rcx),%cl
    1cbf:	80 e1 02             	and    $0x2,%cl
    1cc2:	d0 e9                	shr    %cl
    1cc4:	41 08 cf             	or     %cl,%r15b
    1cc7:	74 05                	je     1cce <balancer_ingress+0x1cce>
    1cc9:	41 89 d8             	mov    %ebx,%r8d
    1ccc:	eb 2b                	jmp    1cf9 <balancer_ingress+0x1cf9>
    1cce:	80 7d a4 11          	cmpb   $0x11,-0x5c(%rbp)
    1cd2:	75 04                	jne    1cd8 <balancer_ingress+0x1cd8>
    1cd4:	48 89 45 c8          	mov    %rax,-0x38(%rbp)
    1cd8:	89 5d c0             	mov    %ebx,-0x40(%rbp)
    1cdb:	48 8d 75 80          	lea    -0x80(%rbp),%rsi
    1cdf:	48 8d 55 c0          	lea    -0x40(%rbp),%rdx
    1ce3:	48 c7 c0 c0 c9 09 9f 	mov    $0xffffffff9f09c9c0,%rax
    1cea:	48 8b bd 70 ff ff ff 	mov    -0x90(%rbp),%rdi
    1cf1:	31 c9                	xor    %ecx,%ecx
    1cf3:	ff d0                	call   *%rax
    1cf5:	44 8b 45 a8          	mov    -0x58(%rbp),%r8d
    1cf9:	48 bf 00 a8 c7 06 81 	movabs $0xffff888106c7a800,%rdi
    1d00:	88 ff ff 
    1d03:	8b 87 00 01 00 00    	mov    0x100(%rdi),%eax
    1d09:	0f b7 97 10 01 00 00 	movzwl 0x110(%rdi),%edx
    1d10:	0f b7 b5 68 ff ff ff 	movzwl -0x98(%rbp),%esi
    1d17:	8a 8d 6a ff ff ff    	mov    -0x96(%rbp),%cl
    1d1d:	88 8f 12 01 00 00    	mov    %cl,0x112(%rdi)
    1d23:	3b 85 58 ff ff ff    	cmp    -0xa8(%rbp),%eax
    1d29:	75 30                	jne    1d5b <balancer_ingress+0x1d5b>
    1d2b:	66 39 f2             	cmp    %si,%dx
    1d2e:	75 2b                	jne    1d5b <balancer_ingress+0x1d5b>
    1d30:	84 c9                	test   %cl,%cl
    1d32:	74 27                	je     1d5b <balancer_ingress+0x1d5b>
    1d34:	44 89 45 c0          	mov    %r8d,-0x40(%rbp)
    1d38:	48 bf 00 50 f6 f5 02 	movabs $0xffffc902f5f65000,%rdi
    1d3f:	c9 ff ff 
    1d42:	48 8d 75 c0          	lea    -0x40(%rbp),%rsi
    1d46:	48 c7 c0 30 c9 09 9f 	mov    $0xffffffff9f09c930,%rax
    1d4d:	ff d0                	call   *%rax
    1d4f:	48 85 c0             	test   %rax,%rax
    1d52:	0f 84 3e ff ff ff    	je     1c96 <balancer_ingress+0x1c96>
    1d58:	83 00 01             	addl   $0x1,(%rax)
    1d5b:	48 8d 04 9b          	lea    (%rbx,%rbx,4),%rax
    1d5f:	48 b9 00 10 f4 f5 02 	movabs $0xffffc902f5f41000,%rcx
    1d66:	c9 ff ff 
    1d69:	48 8d 04 81          	lea    (%rcx,%rax,4),%rax
    1d6d:	48 05 00 01 00 00    	add    $0x100,%rax
    1d73:	48 89 45 d0          	mov    %rax,-0x30(%rbp)
    1d77:	48 8b 85 40 ff ff ff 	mov    -0xc0(%rbp),%rax
    1d7e:	48 83 40 08 01       	addq   $0x1,0x8(%rax)
    1d83:	e9 a4 fa ff ff       	jmp    182c <balancer_ingress+0x182c>
    1d88:	48 83 43 28 01       	addq   $0x1,0x28(%rbx)
    1d8d:	e9 04 ff ff ff       	jmp    1c96 <balancer_ingress+0x1c96>
    1d92:	89 08                	mov    %ecx,(%rax)
    1d94:	48 83 43 58 01       	addq   $0x1,0x58(%rbx)
    1d99:	8b 85 54 ff ff ff    	mov    -0xac(%rbp),%eax
    1d9f:	89 45 c0             	mov    %eax,-0x40(%rbp)
    1da2:	48 bf 00 c0 06 49 81 	movabs $0xffff88814906c000,%rdi
    1da9:	88 ff ff 
    1dac:	48 8d 75 c0          	lea    -0x40(%rbp),%rsi
    1db0:	48 c7 c0 30 c9 09 9f 	mov    $0xffffffff9f09c930,%rax
    1db7:	ff d0                	call   *%rax
    1db9:	48 85 c0             	test   %rax,%rax
    1dbc:	74 4e                	je     1e0c <balancer_ingress+0x1e0c>
    1dbe:	48 83 40 08 01       	addq   $0x1,0x8(%rax)
    1dc3:	eb 47                	jmp    1e0c <balancer_ingress+0x1e0c>
    1dc5:	49 8b 06             	mov    (%r14),%rax
    1dc8:	48 83 c0 01          	add    $0x1,%rax
    1dcc:	49 89 06             	mov    %rax,(%r14)
    1dcf:	48 3d 49 e8 01 00    	cmp    $0x1e849,%rax
    1dd5:	73 30                	jae    1e07 <balancer_ingress+0x1e07>
    1dd7:	48 c7 45 c0 00 00 00 	movq   $0x0,-0x40(%rbp)
    1dde:	00 
    1ddf:	48 c7 45 c8 00 00 00 	movq   $0x0,-0x38(%rbp)
    1de6:	00 
    1de7:	8b 45 a8             	mov    -0x58(%rbp),%eax
    1dea:	89 45 c0             	mov    %eax,-0x40(%rbp)
    1ded:	48 8d 75 80          	lea    -0x80(%rbp),%rsi
    1df1:	48 8d 55 c0          	lea    -0x40(%rbp),%rdx
    1df5:	48 c7 c0 c0 c9 09 9f 	mov    $0xffffffff9f09c9c0,%rax
    1dfc:	48 8b bd 70 ff ff ff 	mov    -0x90(%rbp),%rdi
    1e03:	31 c9                	xor    %ecx,%ecx
    1e05:	ff d0                	call   *%rax
    1e07:	48 83 43 60 01       	addq   $0x1,0x60(%rbx)
    1e0c:	48 83 43 20 01       	addq   $0x1,0x20(%rbx)
    1e11:	44 0f b7 75 a0       	movzwl -0x60(%rbp),%r14d
    1e16:	e9 e1 ef ff ff       	jmp    dfc <balancer_ingress+0xdfc>
    1e1b:	c7 45 c0 02 02 00 00 	movl   $0x202,-0x40(%rbp)
    1e22:	48 bf 00 00 fb d3 81 	movabs $0xffff8881d3fb0000,%rdi
    1e29:	88 ff ff 
    1e2c:	48 8d 75 c0          	lea    -0x40(%rbp),%rsi
    1e30:	41 ff d6             	call   *%r14
    1e33:	48 85 c0             	test   %rax,%rax
    1e36:	0f 84 9e 00 00 00    	je     1eda <balancer_ingress+0x1eda>
    1e3c:	49 89 c6             	mov    %rax,%r14
    1e3f:	48 c7 c0 30 d6 09 9f 	mov    $0xffffffff9f09d630,%rax
    1e46:	ff d0                	call   *%rax
    1e48:	48 89 c1             	mov    %rax,%rcx
    1e4b:	49 2b 4e 08          	sub    0x8(%r14),%rcx
    1e4f:	48 81 f9 01 ca 9a 3b 	cmp    $0x3b9aca01,%rcx
    1e56:	72 40                	jb     1e98 <balancer_ingress+0x1e98>
    1e58:	49 c7 06 01 00 00 00 	movq   $0x1,(%r14)
    1e5f:	49 89 46 08          	mov    %rax,0x8(%r14)
    1e63:	eb 45                	jmp    1eaa <balancer_ingress+0x1eaa>
    1e65:	89 08                	mov    %ecx,(%rax)
    1e67:	48 83 43 58 01       	addq   $0x1,0x58(%rbx)
    1e6c:	8b 85 54 ff ff ff    	mov    -0xac(%rbp),%eax
    1e72:	89 45 c0             	mov    %eax,-0x40(%rbp)
    1e75:	48 bf 00 c0 06 49 81 	movabs $0xffff88814906c000,%rdi
    1e7c:	88 ff ff 
    1e7f:	48 8d 75 c0          	lea    -0x40(%rbp),%rsi
    1e83:	48 c7 c0 30 c9 09 9f 	mov    $0xffffffff9f09c930,%rax
    1e8a:	ff d0                	call   *%rax
    1e8c:	48 85 c0             	test   %rax,%rax
    1e8f:	74 4e                	je     1edf <balancer_ingress+0x1edf>
    1e91:	48 83 40 08 01       	addq   $0x1,0x8(%rax)
    1e96:	eb 47                	jmp    1edf <balancer_ingress+0x1edf>
    1e98:	49 8b 06             	mov    (%r14),%rax
    1e9b:	48 83 c0 01          	add    $0x1,%rax
    1e9f:	49 89 06             	mov    %rax,(%r14)
    1ea2:	48 3d 49 e8 01 00    	cmp    $0x1e849,%rax
    1ea8:	73 30                	jae    1eda <balancer_ingress+0x1eda>
    1eaa:	48 c7 45 c0 00 00 00 	movq   $0x0,-0x40(%rbp)
    1eb1:	00 
    1eb2:	48 c7 45 c8 00 00 00 	movq   $0x0,-0x38(%rbp)
    1eb9:	00 
    1eba:	8b 45 a8             	mov    -0x58(%rbp),%eax
    1ebd:	89 45 c0             	mov    %eax,-0x40(%rbp)
    1ec0:	48 8d 75 80          	lea    -0x80(%rbp),%rsi
    1ec4:	48 8d 55 c0          	lea    -0x40(%rbp),%rdx
    1ec8:	48 c7 c0 c0 c9 09 9f 	mov    $0xffffffff9f09c9c0,%rax
    1ecf:	48 8b bd 70 ff ff ff 	mov    -0x90(%rbp),%rdi
    1ed6:	31 c9                	xor    %ecx,%ecx
    1ed8:	ff d0                	call   *%rax
    1eda:	48 83 43 60 01       	addq   $0x1,0x60(%rbx)
    1edf:	48 83 43 20 01       	addq   $0x1,0x20(%rbx)
    1ee4:	0f b7 45 a0          	movzwl -0x60(%rbp),%eax
    1ee8:	89 85 7c ff ff ff    	mov    %eax,-0x84(%rbp)
    1eee:	e9 39 f9 ff ff       	jmp    182c <balancer_ingress+0x182c>

Disassembly of section license:

0000000000001ef3 <_license>:
    1ef3:	47 50                	rex.RXB push %r8
    1ef5:	4c                   	rex.WR
	...
